

C:\xilinx\projects\zynq146\zc706_predefined_0902\neon_vector_498_test\Debug\neon_vector_498_test.elf:     file format elf32-littlearm
C:\xilinx\projects\zynq146\zc706_predefined_0902\neon_vector_498_test\Debug\neon_vector_498_test.elf
architecture: arm, flags 0x00000112:
EXEC_P, HAS_SYMS, D_PAGED
start address 0x00100000

Program Header:
0x70000001 off    0x00030000 vaddr 0x00128000 paddr 0x00128000 align 2**2
         filesz 0x00000008 memsz 0x00000008 flags r--
    LOAD off    0x00000000 vaddr 0x00000000 paddr 0x00000000 align 2**15
         filesz 0x00000094 memsz 0x00009018 flags rw-
    LOAD off    0x00008000 vaddr 0x00100000 paddr 0x00100000 align 2**15
         filesz 0x00028014 memsz 0x0002f4d0 flags rwx
private flags = 5000002: [Version5 EABI] [has entry point]

Sections:
Idx Name          Size      VMA       LMA       File off  Algn
  0 .ocm_low      00008018  00001000  00001000  00001000  2**3
                  ALLOC
  1 .text         0000fbd8  00100000  00100000  00008000  2**3
                  CONTENTS, ALLOC, LOAD, READONLY, CODE
  2 .init         00000018  0010fbd8  0010fbd8  00017bd8  2**2
                  CONTENTS, ALLOC, LOAD, READONLY, CODE
  3 .fini         00000018  0010fbf0  0010fbf0  00017bf0  2**2
                  CONTENTS, ALLOC, LOAD, READONLY, CODE
  4 .rodata       0000055c  0010fc08  0010fc08  00017c08  2**3
                  CONTENTS, ALLOC, LOAD, READONLY, DATA
  5 .data         00010384  00110168  00110168  00018168  2**3
                  CONTENTS, ALLOC, LOAD, DATA
  6 .eh_frame     00000004  001204ec  001204ec  000284ec  2**2
                  CONTENTS, ALLOC, LOAD, READONLY, DATA
  7 .mmu_tbl      00004000  00124000  00124000  0002c000  2**0
                  CONTENTS, ALLOC, LOAD, READONLY, DATA
  8 .ARM.exidx    00000008  00128000  00128000  00030000  2**2
                  CONTENTS, ALLOC, LOAD, READONLY, DATA
  9 .init_array   00000008  00128008  00128008  00030008  2**2
                  CONTENTS, ALLOC, LOAD, DATA
 10 .fini_array   00000004  00128010  00128010  00030010  2**2
                  CONTENTS, ALLOC, LOAD, DATA
 11 .ARM.attributes 00000037  00128014  00128014  00030014  2**0
                  CONTENTS, READONLY
 12 .bss          000000b8  00128018  00128018  00030014  2**3
                  ALLOC
 13 .heap         00002000  001280d0  001280d0  00030014  2**0
                  ALLOC
 14 .stack        00005400  0012a0d0  0012a0d0  00030014  2**0
                  ALLOC
 15 .debug_info   00009891  00000000  00000000  0003004b  2**0
                  CONTENTS, READONLY, DEBUGGING
 16 .debug_abbrev 00002357  00000000  00000000  000398dc  2**0
                  CONTENTS, READONLY, DEBUGGING
 17 .debug_aranges 00000470  00000000  00000000  0003bc38  2**3
                  CONTENTS, READONLY, DEBUGGING
 18 .debug_macro  0000323f  00000000  00000000  0003c0a8  2**0
                  CONTENTS, READONLY, DEBUGGING
 19 .debug_line   00004a3c  00000000  00000000  0003f2e7  2**0
                  CONTENTS, READONLY, DEBUGGING
 20 .debug_str    0000bb32  00000000  00000000  00043d23  2**0
                  CONTENTS, READONLY, DEBUGGING
 21 .comment      00000031  00000000  00000000  0004f855  2**0
                  CONTENTS, READONLY
 22 .debug_loc    00009f45  00000000  00000000  0004f886  2**0
                  CONTENTS, READONLY, DEBUGGING
 23 .debug_ranges 00001368  00000000  00000000  000597cb  2**0
                  CONTENTS, READONLY, DEBUGGING
 24 .debug_frame  00001c10  00000000  00000000  0005ab34  2**2
                  CONTENTS, READONLY, DEBUGGING
SYMBOL TABLE:
00001000 l    d  .ocm_low	00000000 .ocm_low
00100000 l    d  .text	00000000 .text
0010fbd8 l    d  .init	00000000 .init
0010fbf0 l    d  .fini	00000000 .fini
0010fc08 l    d  .rodata	00000000 .rodata
00110168 l    d  .data	00000000 .data
001204ec l    d  .eh_frame	00000000 .eh_frame
00124000 l    d  .mmu_tbl	00000000 .mmu_tbl
00128000 l    d  .ARM.exidx	00000000 .ARM.exidx
00128008 l    d  .init_array	00000000 .init_array
00128010 l    d  .fini_array	00000000 .fini_array
00128014 l    d  .ARM.attributes	00000000 .ARM.attributes
00128018 l    d  .bss	00000000 .bss
001280d0 l    d  .heap	00000000 .heap
0012a0d0 l    d  .stack	00000000 .stack
00000000 l    d  .debug_info	00000000 .debug_info
00000000 l    d  .debug_abbrev	00000000 .debug_abbrev
00000000 l    d  .debug_aranges	00000000 .debug_aranges
00000000 l    d  .debug_macro	00000000 .debug_macro
00000000 l    d  .debug_line	00000000 .debug_line
00000000 l    d  .debug_str	00000000 .debug_str
00000000 l    d  .comment	00000000 .comment
00000000 l    d  .debug_loc	00000000 .debug_loc
00000000 l    d  .debug_ranges	00000000 .debug_ranges
00000000 l    d  .debug_frame	00000000 .debug_frame
00000000 l    df *ABS*	00000000 asm_vectors.o
00100040 l       .text	00000000 Undefined
00100050 l       .text	00000000 SVCHandler
00100088 l       .text	00000000 PrefetchAbortHandler
00100074 l       .text	00000000 DataAbortHandler
00100030 l       .text	00000000 FIQHandler
00100034 l       .text	00000000 FIQLoop
00000000 l    df *ABS*	00000000 boot.o
f8f02000 l       *ABS*	00000000 PSS_L2CC_BASE_ADDR
f8000000 l       *ABS*	00000000 PSS_SLCR_BASE_ADDR
0fffff00 l       *ABS*	00000000 RESERVED
fe00000f l       *ABS*	00000000 LRemap
f8f0277c l       *ABS*	00000000 L2CCWay
f8f02730 l       *ABS*	00000000 L2CCSync
f8f02100 l       *ABS*	00000000 L2CCCrtl
f8f02104 l       *ABS*	00000000 L2CCAuxCrtl
f8f02108 l       *ABS*	00000000 L2CCTAGLatReg
f8f0210c l       *ABS*	00000000 L2CCDataLatReg
f8f02220 l       *ABS*	00000000 L2CCIntClear
f8f0221c l       *ABS*	00000000 L2CCIntRaw
f8000004 l       *ABS*	00000000 SLCRlockReg
f8000008 l       *ABS*	00000000 SLCRUnlockReg
f8000a1c l       *ABS*	00000000 SLCRL2cRamReg
00001005 l       *ABS*	00000000 CRValMmuCac
00002000 l       *ABS*	00000000 CRValHiVectorAddr
72360000 l       *ABS*	00000000 L2CCAuxControl
00000001 l       *ABS*	00000000 L2CCControl
00000111 l       *ABS*	00000000 L2CCTAGLatency
00000121 l       *ABS*	00000000 L2CCDataLatency
0000767b l       *ABS*	00000000 SLCRlockKey
0000df0d l       *ABS*	00000000 SLCRUnlockKey
00020202 l       *ABS*	00000000 SLCRL2cRamConfig
40000000 l       *ABS*	00000000 FPEXC_EN
001000b4 l       .text	00000000 OKToRun
001000ac l       .text	00000000 EndlessLoop0
001002cc l       .text	00000000 invalidate_dcache
00100174 l       .text	00000000 Sync
00100348 l       .text	00000000 finished
001002e0 l       .text	00000000 loop1
0010033c l       .text	00000000 skip
0010031c l       .text	00000000 loop2
00100320 l       .text	00000000 loop3
00000000 l    df *ABS*	00000000 c:/xilinx/14.6/ise_ds/edk/gnu/arm/nt/bin/../lib/gcc/arm-xilinx-eabi/4.7.2/crti.o
00000000 l    df *ABS*	00000000 crtstuff.c
001204ec l     O .eh_frame	00000000 __EH_FRAME_BEGIN__
001204e8 l     O .data	00000000 __JCR_LIST__
001003d8 l     F .text	00000000 deregister_tm_clones
00100410 l     F .text	00000000 register_tm_clones
00100450 l     F .text	00000000 __do_global_dtors_aux
00128018 l       .bss	00000000 completed.8484
00128010 l     O .fini_array	00000000 __do_global_dtors_aux_fini_array_entry
00100494 l     F .text	00000000 frame_dummy
0012801c l       .bss	00000000 object.8489
0012800c l     O .init_array	00000000 __frame_dummy_init_array_entry
00000000 l    df *ABS*	00000000 arm_cmplx_conj_test_data.c
00000000 l    df *ABS*	00000000 arm_cmplx_dot_prod_f32.c
00000000 l    df *ABS*	00000000 arm_cmplx_dot_prod_f32_test.c
00117d70 l     O .data	0000008c CONFIG
00128038 l     O .bss	00000004 testOutput_real
00128040 l     O .bss	00000004 testOutput_imag
00000000 l    df *ABS*	00000000 arm_cmplx_dot_prod_test_data.c
00000000 l    df *ABS*	00000000 arm_cmplx_mult_cmplx_f32.c
00000000 l    df *ABS*	00000000 arm_cmplx_mult_cmplx_f32_dot.c
00000000 l    df *ABS*	00000000 arm_cmplx_mult_cmplx_f32_dot2.c
00000000 l    df *ABS*	00000000 arm_cmplx_vector_dot_prod.c
00000000 l    df *ABS*	00000000 arm_cmplx_vector_dot_prod_data.c
00000000 l    df *ABS*	00000000 arm_vector_test.c
00000000 l    df *ABS*	00000000 func_measure_time.c
00000000 l    df *ABS*	00000000 math_helper.c
00000000 l    df *ABS*	00000000 platform.c
00000000 l    df *ABS*	00000000 translation_table.o
00000000 l       *ABS*	00000000 SECT
00000000 l    df *ABS*	00000000 usleep.c
00000000 l    df *ABS*	00000000 vectors.c
00000000 l    df *ABS*	00000000 xil-crt0.S
00000000 l    df *ABS*	00000000 xil_cache.c
00000000 l    df *ABS*	00000000 xil_exception.c
00105334 l     F .text	00000004 Xil_ExceptionNullHandler
00000000 l    df *ABS*	00000000 xil_io.c
00000000 l    df *ABS*	00000000 xil_printf.c
00000000 l    df *ABS*	00000000 xtime_l.c
00000000 l    df *ABS*	00000000 cpu_init.o
00000000 l    df *ABS*	00000000 outbyte.c
00000000 l    df *ABS*	00000000 xuartps_hw.c
00000000 l    df *ABS*	00000000 _udivsi3.o
00105c4c l       .text	00000000 .udivsi3_skip_div0_test
00000000 l       *ABS*	00000000 shift
00000000 l    df *ABS*	00000000 _dvmd_tls.o
00000000 l    df *ABS*	00000000 _aeabi_uldivmod.o
00000000 l    df *ABS*	00000000 bpabi.c
00000000 l    df *ABS*	00000000 libgcc2.c
00000000 l    df *ABS*	00000000 libgcc2.c
00000000 l    df *ABS*	00000000 ctype_.c
00000000 l    df *ABS*	00000000 exit.c
00000000 l    df *ABS*	00000000 fini.c
00000000 l    df *ABS*	00000000 impure.c
0011fc30 l     O .data	00000428 impure_data
00000000 l    df *ABS*	00000000 init.c
00000000 l    df *ABS*	00000000 printf.c
00000000 l    df *ABS*	00000000 rand.c
00000000 l    df *ABS*	00000000 strlen.c
00000000 l    df *ABS*	00000000 vfprintf.c
0010fd10 l     O .rodata	00000010 blanks.7592
0010fd20 l     O .rodata	00000010 zeroes.7593
00000000 l    df *ABS*	00000000 wsetup.c
00000000 l    df *ABS*	00000000 __call_atexit.c
0010fbbc l     F .text	0000001c register_fini
00000000 l    df *ABS*	00000000 atexit.c
00000000 l    df *ABS*	00000000 dtoa.c
00108f18 l     F .text	000001d0 quorem
00000000 l    df *ABS*	00000000 fflush.c
00000000 l    df *ABS*	00000000 findfp.c
0010a590 l     F .text	00000008 __fp_lock
0010a598 l     F .text	00000008 __fp_unlock
0010a5ac l     F .text	00000078 std.isra.0
00000000 l    df *ABS*	00000000 mallocr.c
00000000 l    df *ABS*	00000000 fwalk.c
00000000 l    df *ABS*	00000000 locale.c
00120058 l     O .data	00000020 lc_ctype_charset
0012007c l     O .data	00000020 lc_message_charset
0012009c l     O .data	00000038 lconv
00000000 l    df *ABS*	00000000 makebuf.c
00000000 l    df *ABS*	00000000 mallocr.c
00000000 l    df *ABS*	00000000 memchr.c
00000000 l    df *ABS*	00000000 memcpy.c
00000000 l    df *ABS*	00000000 memset.c
00000000 l    df *ABS*	00000000 mlock.c
00000000 l    df *ABS*	00000000 mprec.c
0010fd30 l     O .rodata	0000000c p05.6099
00000000 l    df *ABS*	00000000 s_fpclassify.c
00000000 l    df *ABS*	00000000 sbrkr.c
00000000 l    df *ABS*	00000000 stdio.c
00000000 l    df *ABS*	00000000 strcmp.c
0010cec0 l     F .text	0000019c strcmp_unaligned
00000000 l    df *ABS*	00000000 vfprintf.c
0010fe58 l     O .rodata	00000010 blanks.7535
0010fe68 l     O .rodata	00000010 zeroes.7536
00000000 l    df *ABS*	00000000 writer.c
00000000 l    df *ABS*	00000000 __atexit.c
00000000 l    df *ABS*	00000000 mallocr.c
00000000 l    df *ABS*	00000000 closer.c
00000000 l    df *ABS*	00000000 fclose.c
00000000 l    df *ABS*	00000000 fputwc.c
00000000 l    df *ABS*	00000000 fstatr.c
00000000 l    df *ABS*	00000000 fvwrite.c
00000000 l    df *ABS*	00000000 isattyr.c
00000000 l    df *ABS*	00000000 lseekr.c
00000000 l    df *ABS*	00000000 memmove.c
00000000 l    df *ABS*	00000000 readr.c
00000000 l    df *ABS*	00000000 mallocr.c
00000000 l    df *ABS*	00000000 reent.c
00000000 l    df *ABS*	00000000 wbuf.c
00000000 l    df *ABS*	00000000 wcrtomb.c
00000000 l    df *ABS*	00000000 wctomb_r.c
00000000 l    df *ABS*	00000000 _exit.c
00000000 l    df *ABS*	00000000 _sbrk.c
00128088 l     O .bss	00000004 heap.4133
00000000 l    df *ABS*	00000000 close.c
00000000 l    df *ABS*	00000000 fstat.c
00000000 l    df *ABS*	00000000 isatty.c
00000000 l    df *ABS*	00000000 lseek.c
00000000 l    df *ABS*	00000000 read.c
00000000 l    df *ABS*	00000000 write.c
00000000 l    df *ABS*	00000000 errno.c
00000000 l    df *ABS*	00000000 inbyte.c
00000000 l    df *ABS*	00000000 crtstuff.c
001204ec l     O .eh_frame	00000000 __FRAME_END__
001204e8 l     O .data	00000000 __JCR_END__
00000000 l    df *ABS*	00000000 c:/xilinx/14.6/ise_ds/edk/gnu/arm/nt/bin/../lib/gcc/arm-xilinx-eabi/4.7.2/crtn.o
00000000 l    df *ABS*	00000000 
00117770 g     O .data	00000200 testRefOutput2_f32
00103a8c g     F .text	0000002c arm_calc_guard_bits
0010cb78 g     F .text	0000003c _mprec_log10
0012e0d0 g       .stack	00000000 _supervisor_stack_end
0010cc28 g     F .text	00000088 __any_on
0010ecc4 g     F .text	00000038 _isatty_r
0010fe08 g     O .rodata	00000028 __mprec_tinytens
00104db8 g     F .text	00000038 Xil_L1ICacheInvalidateRange
00119f10 g     O .data	00000800 cmplxDotProd_srcB_buf4_q15
00001000 g     O .ocm_low	00004000 gf_array_src_a
0010f408 g     F .text	0000002c cleanup_glue
00105ed4 g     F .text	0000003c __gnu_uldivmod_helper
00117f10 g     O .data	00001000 cmplxDotProd_srcB_buf5_q15
001054cc g     F .text	00000088 outs
0010ecfc g     F .text	00000040 _lseek_r
00100000 g       .text	00000000 _vector_table
001204f0 g       .eh_frame	00000000 __eh_framehdr_start
00105104 g     F .text	00000040 Xil_L2CacheDisable
001204ec g       .data	00000000 ___CTORS_LIST___
001053bc g     F .text	00000008 Xil_In32
00104ab0 g     F .text	00000080 Xil_ICacheInvalidateRange
00105f10 g     F .text	000004bc __divdi3
00104cd0 g     F .text	00000018 Xil_L1DCacheDisable
00000400 g       *ABS*	00000000 _ABORT_STACK_SIZE
00106938 g     F .text	00000040 printf
0010f6f0 g     F .text	0000008c _wcrtomb_r
0010cde8 g     F .text	0000002c __sseek
0010a67c g     F .text	00000070 __sinit
0010f598 g     F .text	0000013c __swbuf_r
00116f70 g     O .data	00000400 testRefOutput3_f32
00100e6c g     F .text	00000428 arm_cmplx_mult_cmplx_f32
0010ac84 g     F .text	00000070 _setlocale_r
0010a624 g     F .text	00000048 __sfmoreglue
00104f6c g     F .text	00000050 Xil_L2CacheInvalidateLine
0010c010 g     F .text	00000004 __malloc_unlock
0012808c g     O .bss	00000004 snr_imag
00104838 g     F .text	00000004 enable_caches
0010ed3c g     F .text	00000134 memmove
0010a66c g     F .text	00000010 _cleanup
0012e8d0 g       .stack	00000000 __supervisor_stack
0010c014 g     F .text	00000088 _Balloc
00128008 g       .ARM.exidx	00000000 __exidx_end
00105bf0 g     F .text	00000030 XUartPs_SendByte
0011e620 g     O .data	00000800 cmplxDotProd_srcA_buf4_f32
0012f0d0 g       .stack	00000000 _undef_stack_end
0010fa40 g     F .text	00000010 __errno
00105338 g     F .text	00000038 Xil_ExceptionInit
00128014 g       .ARM.attributes	00000000 __sbss_start
0010e7b0 g     F .text	0000003c _fstat_r
001280cc g     O .bss	00000004 errno
0010cd84 g     F .text	00000008 __seofread
0010491c g     F .text	0000001c PrefetchAbortInterrupt
00105c20 g     F .text	0000002c XUartPs_RecvByte
00104868 g     F .text	00000044 usleep
00105418 g     F .text	00000010 Xil_Out16BE
001204ec g       .data	00000000 __fixup_start
00105178 g     F .text	00000010 Xil_DCacheFlush
00104f5c g     F .text	00000010 Xil_DCacheInvalidate
0010009c g       .text	00000000 _boot
00102bd0 g     F .text	000006e8 arm_compare_fixed_q15
00115f70 g     O .data	00000800 testRefOutput4_f32
001204ec g       .data	00000000 __fixup_end
0010b708 g     F .text	000006d8 memcpy
0011be20 g     O .data	00001000 cmplxDotProd_srcB_buf5_f32
00000000         *UND*	00000000 SIM_MODE
001204ec g     O .data	00000000 .hidden __TMC_END__
0010a5a0 g     F .text	0000000c _cleanup_r
00124000 g       .mmu_tbl	00000000 __mmu_tbl_start
00128014 g       .ARM.attributes	00000000 __sdata_start
001204ec g       .data	00000000 __DTOR_END__
00105e5c g     F .text	00000000 __aeabi_uldivmod
00104f3c g     F .text	00000020 Xil_ICacheInvalidate
00104850 g     F .text	00000004 init_platform
0012ecd0 g       .stack	00000000 __abort_stack
00128014 g       .fini_array	00000000 __fini_array_end
00110164 g       .rodata	00000000 __rodata_end
0010ccb0 g     F .text	0000006c __fpclassifyd
0010cb00 g     F .text	00000078 __ratio
00105004 g     F .text	00000094 Xil_L2CacheInvalidateRange
00117970 g     O .data	00000200 testInput2_f32
00113e70 g     O .data	00000100 testInput1_q15
00000000  w      *UND*	00000000 malloc
00106904 g     F .text	00000034 _printf_r
00105c4c g     F .text	000001ec __udivsi3
0010f8d0 g     F .text	00000008 isatty
0010f8c0 g     F .text	00000010 _fstat
001204ec g       .data	00000000 __data1_start
0010fd40 g     O .rodata	000000c8 __mprec_tens
00100b6c g     F .text	00000300 test_arm_cmplx_dot_prod_f32
00110164 g       .data	00000000 __sbss2_end
0010acf4 g     F .text	0000000c __locale_charset
00128054 g     O .bss	00000004 __malloc_top_pad
0011fb20 g     O .data	00000100 cmplxDotProd_srcA_buf1_f32
00103ab8 g     F .text	000000c4 arm_apply_guard_bits
00110168 g     O .data	00000000 .hidden __dso_handle
00120078 g     O .data	00000004 __mb_cur_max
0012e0d0 g       .stack	00000000 __irq_stack
0010ad24 g     F .text	0000000c _localeconv_r
0010e7ec g     F .text	000004d8 __sfvwrite_r
0010c358 g     F .text	00000020 __i2b
001051ec g     F .text	00000048 Xil_DCacheFlushLine
0010484c g     F .text	00000004 init_uart
0010cd1c g     F .text	00000038 _sbrk_r
00105ba0 g       .text	00000000 __cpu_init
00101ea4 g     F .text	00000308 sp_cmplx_vector_init
00112170 g     O .data	00000800 testRefOutput4_q15
0010ee70 g     F .text	00000040 _read_r
00102438 g     F .text	000000dc arm_snr_f32
0010e50c g     F .text	000000fc _fclose_r
00104df0 g     F .text	000000d0 Xil_L2CacheEnable
0010a560 g     F .text	00000030 fflush
00128080 g     O .bss	00000004 __malloc_max_sbrked_mem
0011b710 g     O .data	00000200 cmplxDotProd_srcB_buf2_q15
001053f0 g     F .text	00000028 Xil_In32BE
00103898 g     F .text	000001f4 arm_provide_guard_bits_q7
00128090 g     O .bss	00000004 snr_real
00000800 g       *ABS*	00000000 _SUPERVISOR_STACK_SIZE
0012a0d0 g       .heap	00000000 _heap_end
0010c93c g     F .text	000000c4 __b2d
00128000 g       .ARM.exidx	00000000 __exidx_start
0010f8e0 g     F .text	00000018 lseek
00105554 g     F .text	000000f8 outnum
001017cc g     F .text	00000534 arm_cmplx_mult_cmplx_f32_dot2
0010f8d8 g     F .text	00000008 _isatty
001048c8 g     F .text	0000001c IRQInterrupt
00103c04 g     F .text	00000348 arm_float_to_q14
0010fd0c g     O .rodata	00000004 _global_impure_ptr
0011bb10 g     O .data	00000100 cmplxDotProd_srcB_buf1_q15
0010eeb0 g     F .text	00000558 _realloc_r
00106888 g     F .text	0000007c __libc_init_array
001280d0 g       .bss	00000000 __bss_end
00110164 g       .data	00000000 __rodata1_start
001063cc g     F .text	0000044c __udivdi3
0010e61c g     F .text	00000150 _fputwc_r
00117b70 g     O .data	00000100 testRefOutput1_f32
00129322 g       .ARM.attributes	00000000 __ARM.attributes_end
0010fe30 g     O .rodata	00000028 __mprec_bigtens
0010c188 g     F .text	000000ec __s2b
001048e4 g     F .text	0000001c SWInterrupt
0010f88c g     F .text	0000002c _sbrk
0010c738 g     F .text	00000064 __mcmp
00128014 g       .ARM.attributes	00000000 __tbss_start
0010a7ec g     F .text	00000018 __fp_lock_all
0010fbd8 g     F .init	00000000 _init
00113170 g     O .data	00000400 testRefOutput3_q15
00105098 g     F .text	0000006c Xil_L2CacheFlush
00104a30 g     F .text	00000080 Xil_DCacheFlushRange
00102514 g     F .text	000003b8 arm_provide_guard_bits_q15
00118f10 g     O .data	00001000 cmplxDotProd_srcA_buf5_q15
0010684c g     F .text	0000003c __libc_fini_array
00114f70 g     O .data	00001000 testInput5_f32
00117e00 g     O .data	00000078 cmplxDotProd_srcB_buf7_q15
0010f434 g     F .text	000000f8 _reclaim_reent
0012f0d0 g       .stack	00000000 __fiq_stack
00000000         *UND*	00000000 prof_pc
0010c274 g     F .text	00000050 __hi0bits
00105370 g     F .text	00000018 Xil_ExceptionRegisterHandler
00104864 g     F .text	00000004 nanosleep
00005000 g     O .ocm_low	00004000 gf_array_src_b
001280d0 g       .heap	00000000 _heap_start
0011b310 g     O .data	00000400 cmplxDotProd_srcA_buf3_q15
00128014 g       .ARM.attributes	00000000 __sbss_end
00104be8 g     F .text	00000018 Xil_L1DCacheInvalidateLine
00104ce8 g     F .text	00000018 Xil_L1DCacheFlushLine
00000400 g       *ABS*	00000000 _FIQ_STACK_SIZE
0010f9a0 g     F .text	00000050 write
0010009c g       .text	00000000 _prestart
00103b7c g     F .text	00000088 arm_calc_2pow
001056c0 g     F .text	00000440 xil_printf
0010c544 g     F .text	000000ec __pow5mult
00128050 g     O .bss	00000004 __nlocale_changed
0012f4d0 g       .stack	00000000 __undef_stack
0010f52c g     F .text	0000006c _wrapup_reent
00000000  w      *UND*	00000000 __deregister_frame_info
001004ec g     F .text	00000340 arm_cmplx_dot_prod_f32
00105484 g     F .text	00000048 padding
00116770 g     O .data	00000800 testInput4_f32
001053d4 g     F .text	00000008 Xil_Out32
00113570 g     O .data	00000400 testInput3_q15
0011bd88 g     O .data	00000078 cmplxDotProd_srcA_buf7_f32
0011af10 g     O .data	00000400 cmplxDotProd_srcB_buf3_q15
00000000  w      *UND*	00000000 _ITM_registerTMCloneTable
001204ec g       .data	00000000 __CTOR_LIST__
00124000 g       .mmu_tbl	00000000 MMUTable
00110164 g       .data	00000000 __sbss2_start
0011f220 g     O .data	00000400 cmplxDotProd_srcA_buf3_f32
00104da0 g     F .text	00000018 Xil_L1ICacheInvalidateLine
0010a7dc g     F .text	00000004 __sfp_lock_acquire
0010b5ec g     F .text	0000011c memchr
0010a918 g     F .text	00000268 _free_r
0010ad00 g     F .text	00000010 __locale_mb_cur_max
00104d50 g     F .text	0000001c Xil_L1ICacheEnable
00108d98 g     F .text	0000016c __call_exitprocs
0012804c g     O .bss	00000004 __mlocale_changed
001204dc g     O .data	00000004 __malloc_sbrk_base
001049b0 g     F .text	00000080 Xil_DCacheInvalidateRange
0010494c g       .text	00000064 _start
0011fa20 g     O .data	00000100 cmplxDotProd_srcB_buf1_f32
00106994 g     F .text	00000058 rand
0010f8f8 g     F .text	00000018 _lseek
0010fc08 g       .rodata	00000000 __rodata_start
00104d6c g     F .text	0000001c Xil_L1ICacheDisable
0010c630 g     F .text	00000108 __lshift
0010f910 g     F .text	00000048 read
00128014 g       *ABS*	00000000 _SDA_BASE_
0010e350 g     F .text	000000f0 __register_exitproc
00104fbc g     F .text	00000024 Xil_ICacheInvalidateLine
001204ec g       .data	00000000 __data_end
0011bc10 g     O .data	00000100 cmplxDotProd_srcA_buf1_q15
00102370 g     F .text	000000c8 func2_time_measure
0010c378 g     F .text	000001cc __multiply
001053ac g     F .text	00000008 Xil_In8
001280d0 g       .heap	00000000 HeapBase
00128058 g     O .bss	00000028 __malloc_current_mallinfo
0010ca00 g     F .text	00000100 __d2b
0011ee20 g     O .data	00000400 cmplxDotProd_srcB_buf3_f32
0010e4d4 g     F .text	00000038 _close_r
00117f00 g     O .data	00000010 cmplxDotProd_srcA_buf6_q15
0010450c g     F .text	000002e0 arm_float_to_q28
00105144 g     F .text	00000024 Xil_ICacheDisable
0012c0d0 g       .stack	00000000 _irq_stack_end
00105168 g     F .text	00000010 Xil_DCacheDisable
0011f620 g     O .data	00000200 cmplxDotProd_srcB_buf2_f32
00101294 g     F .text	00000518 arm_cmplx_mult_cmplx_f32_dot
00108c38 g     F .text	00000160 __swsetup_r
00105e58  w    F .text	00000004 __aeabi_ldiv0
0010a6ec g     F .text	000000f0 __sfp
0010cbb4 g     F .text	00000074 __copybits
001200d4 g     O .data	00000408 __malloc_av_
0010a7e8 g     F .text	00000004 __sinit_lock_release
001204f0 g       .eh_frame	00000000 __eh_framehdr_end
0010cd54 g     F .text	00000030 __sread
00105be0 g     F .text	00000010 outbyte
001032b8 g     F .text	000003c4 arm_compare_fixed_q31
0010c00c g     F .text	00000004 __malloc_lock
00000000  w      *UND*	00000000 _ITM_deregisterTMCloneTable
00128010 g       .fini_array	00000000 __fini_array_start
0010a310 g     F .text	00000250 _fflush_r
0011f820 g     O .data	00000200 cmplxDotProd_srcA_buf2_f32
0010e440 g     F .text	00000094 _calloc_r
00104bc8 g     F .text	00000020 Xil_L1DCacheEnable
00128018 g       .bss	00000000 __bss_start
00002000 g       *ABS*	00000000 _STACK_SIZE
00128014 g       .ARM.attributes	00000000 __tdata_start
00128014 g       .ARM.attributes	00000000 __tdata_end
0010bde0 g     F .text	0000022c memset
00009010 g     O .ocm_low	00000008 gf_sum
00009018 g       .ocm_low	00000000 __ocm_low_end
0010fa5c g     F .text	00000160 main
00128084 g     O .bss	00000004 __malloc_max_total_mem
00002000 g       *ABS*	00000000 _HEAP_SIZE
0010f6d4 g     F .text	0000001c __swbuf
00106978 g     F .text	0000001c srand
00009008 g     O .ocm_low	00000008 gf_sum_dsp_concept2
00105c4c g     F .text	00000000 __aeabi_uidiv
00105460 g     F .text	00000024 Xil_EndianSwap32
0010ce14 g     F .text	00000008 __sclose
0010e608 g     F .text	00000014 fclose
00128010 g       .init_array	00000000 __init_array_end
0010483c g     F .text	00000010 disable_caches
001090e8 g     F .text	00001224 _dtoa_r
0010aed0 g     F .text	0000071c _malloc_r
00104b30 g     F .text	00000098 Xil_L1DCacheInvalidate
0010f810 g     F .text	00000030 __ascii_wctomb
0010ab80 g     F .text	00000080 _fwalk
0012a0d0 g       .stack	00000000 _stack_end
00000000  w      *UND*	00000000 __libc_fini
00113d70 g     O .data	00000100 testRefOutput1_q15
001204ec g       .data	00000000 ___DTORS_END___
0011de20 g     O .data	00000800 cmplxDotProd_srcB_buf4_f32
00104d00 g     F .text	00000038 Xil_L1DCacheFlushRange
0010367c g     F .text	0000021c arm_provide_guard_bits_q31
00105b00 g     F .text	00000050 XTime_SetTime
0011be10 g     O .data	00000010 cmplxDotProd_srcA_buf6_f32
00128014 g       .ARM.attributes	00000000 __sdata_end
0010a81c g     F .text	000000fc _malloc_trim_r
00110164 g       .data	00000000 __sdata2_start
001204ec g       .data	00000000 __CTOR_END__
001204ec g       .data	00000000 ___DTORS_LIST___
0010ce1c g     F .text	000000a4 strcmp
00104d38 g     F .text	00000018 Xil_L1DCacheStoreLine
001204ec g       .data	00000000 __DTOR_LIST__
0010e2e4 g     F .text	0000002c vfiprintf
0010fbf0 g     F .fini	00000000 _fini
00117e78 g     O .data	00000078 cmplxDotProd_srcA_buf7_q15
00104ec0 g     F .text	0000001c Xil_ICacheEnable
001052cc g     F .text	00000050 Xil_L2CacheStoreLine
00128048 g     O .bss	00000004 _PathLocale
00101d00 g     F .text	000001a4 sp_cmplx_vector_dot_mul
0012e8d0 g       .stack	00000000 _abort_stack_end
0011be00 g     O .data	00000010 cmplxDotProd_srcB_buf6_f32
00108f04 g     F .text	00000014 atexit
0010e310 g     F .text	00000040 _write_r
0010082c g     F .text	00000340 arm_cmplx_dot_prod_f322
0010ad30 g     F .text	0000001c setlocale
001022d0 g     F .text	000000a0 func1_time_measure
0011fc28 g     O .data	00000004 _impure_ptr
0010ad1c g     F .text	00000008 __locale_cjk_lang
001053c4 g     F .text	00000008 Xil_Out8
00128008 g       .init_array	00000000 __preinit_array_end
00110170 g     O .data	00001000 testRefOutput5_q15
00110164 g       .data	00000000 __sdata2_end
001017ac g     F .text	00000020 sp_cmplx_vector_dot_mul_dsp_concept
00105450 g     F .text	00000010 Xil_EndianSwap16
0010c8d8 g     F .text	00000064 __ulp
0010a804 g     F .text	00000018 __fp_unlock_all
00117ef0 g     O .data	00000010 cmplxDotProd_srcB_buf6_q15
001028cc g     F .text	00000304 arm_float_to_q12_20
0010fa50 g     F .text	0000000c inbyte
00128094 g     O .bss	00000038 XExc_VectorTable
00112970 g     O .data	00000800 testInput4_q15
0010ad4c g     F .text	0000000c localeconv
001204ec g       .data	00000000 ___CTORS_END___
0012c0d0 g       .stack	00000000 __stack
00105e38 g     F .text	00000020 __aeabi_uidivmod
0012a0d0 g       .heap	00000000 HeapLimit
00105388 g     F .text	00000024 Xil_ExceptionRemoveHandler
0010f9f0 g     F .text	00000050 _write
0010422c g     F .text	000002e0 arm_float_to_q29
0010564c g     F .text	00000074 getnum
0012f4d0 g       .stack	00000000 _end
001021b0 g     F .text	00000120 global_timer_test
00110164 g       .data	00000000 __rodata1_end
00104854 g     F .text	00000010 cleanup_platform
001204ec g       .data	00000000 __data1_end
00113b70 g     O .data	00000200 testInput2_q15
00104900 g     F .text	0000001c DataAbortInterrupt
00105428 g     F .text	00000028 Xil_Out32BE
00111170 g     O .data	00001000 testInput5_q15
0010cd8c g     F .text	0000005c __swrite
001204e0 g     O .data	00000004 __malloc_trim_threshold
0011ce20 g     O .data	00001000 cmplxDotProd_srcA_buf5_f32
001280d0 g       .heap	00000000 _heap
00113f70 g     O .data	00001000 testRefOutput5_f32
0010ad10 g     F .text	0000000c __locale_msgcharset
00106818 g     F .text	00000034 exit
0010d10c g     F .text	000011d8 _vfiprintf_r
0010ac00 g     F .text	00000084 _fwalk_reent
0010c79c g     F .text	0000013c __mdiff
0011fc20 g     O .data	00000004 __ctype_ptr__
00128014 g       .ARM.attributes	00000000 __tbss_end
0010a7e0 g     F .text	00000004 __sfp_lock_release
0011a710 g     O .data	00000800 cmplxDotProd_srcA_buf4_q15
00009000 g     O .ocm_low	00000008 gf_sum_dsp_concept
0010fc08 g     O .rodata	00000101 _ctype_
0010f958 g     F .text	00000048 _read
00128008 g       .init_array	00000000 __init_array_start
00105e58  w    F .text	00000004 __aeabi_idiv0
00117c70 g     O .data	00000100 testInput1_f32
001047ec g     F .text	0000004c arm_clip_f32
00100020 g       .text	00000000 IRQHandler
0010f888 g     F .text	00000004 _exit
00001000 g       .ocm_low	00000000 __ocm_low_start
00104fe0 g     F .text	00000024 Xil_DCacheInvalidateLine
001053dc g     F .text	00000014 Xil_In16BE
0011bd10 g     O .data	00000078 cmplxDotProd_srcB_buf7_f32
0010ad58 g     F .text	00000178 __smakebuf_r
001048ac g     F .text	0000001c FIQInterrupt
001069ec g     F .text	0000006c strlen
0012c0d0 g       .stack	00000000 _stack
00113970 g     O .data	00000200 testRefOutput2_q15
001204e4 g     O .data	00000004 __wctomb
00105e98 g     F .text	0000003c __gnu_ldivmod_helper
0010d05c g     F .text	000000b0 __sprint_r
001053cc g     F .text	00000008 Xil_Out16
00110168 g       .data	00000000 __data_start
00105234 g     F .text	00000098 Xil_L2CacheFlushRange
0010531c g     F .text	00000018 Xil_DCacheStoreLine
00103f4c g     F .text	000002e0 arm_float_to_q30
00104eec g     F .text	00000050 Xil_L2CacheInvalidate
0010f840 g     F .text	00000048 _wctomb_r
00000000  w      *UND*	00000000 _Jv_RegisterClasses
0012ecd0 g       .stack	00000000 _fiq_stack_end
001053b4 g     F .text	00000008 Xil_In16
00106a58 g     F .text	000021b4 _vfprintf_r
00128008 g       .init_array	00000000 __preinit_array_start
00104c38 g     F .text	00000098 Xil_L1DCacheFlush
00000400 g       *ABS*	00000000 _UNDEF_STACK_SIZE
00104d88 g     F .text	00000018 Xil_L1ICacheInvalidate
0010c2c4 g     F .text	00000094 __lo0bits
00105188 g     F .text	00000064 Xil_L2CacheFlushLine
00110164 g       *ABS*	00000000 _SDA2_BASE_
00105b50 g     F .text	00000050 XTime_GetTime
00000000  w      *UND*	00000000 __register_frame_info
0010f77c g     F .text	00000094 wcrtomb
00128000 g       .mmu_tbl	00000000 __mmu_tbl_end
0011b910 g     O .data	00000200 cmplxDotProd_srcA_buf2_q15
00104edc g     F .text	00000010 Xil_DCacheEnable
00128014 g       .ARM.attributes	00000000 __ARM.attributes_start
00108c0c g     F .text	0000002c vfprintf
00104c00 g     F .text	00000038 Xil_L1DCacheInvalidateRange
0010e76c g     F .text	00000044 fputwc
0010f8b8 g     F .text	00000008 _close
00000000  w      *UND*	00000000 free
0010a7e4 g     F .text	00000004 __sinit_lock_acquire
00117370 g     O .data	00000400 testInput3_f32
0010c0b8 g     F .text	000000d0 __multadd
0010c09c g     F .text	0000001c _Bfree



Disassembly of section .text:

00100000 <_vector_table>:
.globl IRQHandler
.globl prof_pc

.section .vectors
_vector_table:
	B	_boot
  100000:	ea000025 	b	10009c <_boot>
	B	Undefined
  100004:	ea00000d 	b	100040 <Undefined>
	B	SVCHandler
  100008:	ea000010 	b	100050 <SVCHandler>
	B	PrefetchAbortHandler
  10000c:	ea00001d 	b	100088 <PrefetchAbortHandler>
	B	DataAbortHandler
  100010:	ea000017 	b	100074 <DataAbortHandler>
	NOP	/* Placeholder for address exception vector*/
  100014:	e320f000 	nop	{0}
	B	IRQHandler
  100018:	ea000000 	b	100020 <IRQHandler>
	B	FIQHandler
  10001c:	ea000003 	b	100030 <FIQHandler>

00100020 <IRQHandler>:


IRQHandler:					/* IRQ vector handler */
	
	stmdb	sp!,{r0-r3,r12,lr}		/* state save from compiled code*/
  100020:	e92d500f 	push	{r0, r1, r2, r3, ip, lr}
	ldr	r2, =prof_pc
	subs	r3, lr, #0
	str	r3, [r2]
#endif

	bl	IRQInterrupt			/* IRQ vector */
  100024:	eb001227 	bl	1048c8 <IRQInterrupt>
	
#ifdef __ARM_NEON__
	vpop    {d16-d31}
	vpop    {d0-d7}
#endif
	ldmia	sp!,{r0-r3,r12,lr}		/* state restore from compiled code */
  100028:	e8bd500f 	pop	{r0, r1, r2, r3, ip, lr}
	

	subs	pc, lr, #4			/* adjust return */
  10002c:	e25ef004 	subs	pc, lr, #4

00100030 <FIQHandler>:


FIQHandler:					/* FIQ vector handler */
	stmdb	sp!,{r0-r3,r12,lr}		/* state save from compiled code */
  100030:	e92d500f 	push	{r0, r1, r2, r3, ip, lr}

00100034 <FIQLoop>:
	vpush {d0-d7}
	vpush {d16-d31}
#endif

FIQLoop:
	bl	FIQInterrupt			/* FIQ vector */
  100034:	eb00121c 	bl	1048ac <FIQInterrupt>

#ifdef __ARM_NEON__
	vpop    {d16-d31}
	vpop    {d0-d7}
#endif
	ldmia	sp!,{r0-r3,r12,lr}		/* state restore from compiled code */
  100038:	e8bd500f 	pop	{r0, r1, r2, r3, ip, lr}
	subs	pc, lr, #4			/* adjust return */
  10003c:	e25ef004 	subs	pc, lr, #4

00100040 <Undefined>:


Undefined:					/* Undefined handler */
	stmdb	sp!,{r0-r3,r12,lr}		/* state save from compiled code */
  100040:	e92d500f 	push	{r0, r1, r2, r3, ip, lr}

	ldmia	sp!,{r0-r3,r12,lr}		/* state restore from compiled code */
  100044:	e8bd500f 	pop	{r0, r1, r2, r3, ip, lr}

	b	_prestart			
  100048:	ea000013 	b	10009c <_boot>

	movs	pc, lr
  10004c:	e1b0f00e 	movs	pc, lr

00100050 <SVCHandler>:


SVCHandler:					/* SWI handler */
	stmdb	sp!,{r0-r3,r12,lr}		/* state save from compiled code */
  100050:	e92d500f 	push	{r0, r1, r2, r3, ip, lr}

	tst	r0, #0x20			/* check the T bit */
  100054:	e3100020 	tst	r0, #32
	ldrneh	r0, [lr,#-2]			/* Thumb mode */
  100058:	115e00b2 	ldrhne	r0, [lr, #-2]
	bicne	r0, r0, #0xff00			/* Thumb mode */
  10005c:	13c00cff 	bicne	r0, r0, #65280	; 0xff00
	ldreq	r0, [lr,#-4]			/* ARM mode */
  100060:	051e0004 	ldreq	r0, [lr, #-4]
	biceq	r0, r0, #0xff000000		/* ARM mode */
  100064:	03c004ff 	biceq	r0, r0, #-16777216	; 0xff000000

	bl	SWInterrupt			/* SWInterrupt: call C function here */
  100068:	eb00121d 	bl	1048e4 <SWInterrupt>

	ldmia	sp!,{r0-r3,r12,lr}		/* state restore from compiled code */
  10006c:	e8bd500f 	pop	{r0, r1, r2, r3, ip, lr}

	subs	pc, lr, #4			/* adjust return */
  100070:	e25ef004 	subs	pc, lr, #4

00100074 <DataAbortHandler>:


DataAbortHandler:				/* Data Abort handler */
#ifdef CONFIG_ARM_ERRATA_775420
	dsb
  100074:	f57ff04f 	dsb	sy
#endif
	stmdb	sp!,{r0-r3,r12,lr}		/* state save from compiled code */
  100078:	e92d500f 	push	{r0, r1, r2, r3, ip, lr}

	bl	DataAbortInterrupt		/*DataAbortInterrupt :call C function here */
  10007c:	eb00121f 	bl	104900 <DataAbortInterrupt>

	ldmia	sp!,{r0-r3,r12,lr}		/* state restore from compiled code */
  100080:	e8bd500f 	pop	{r0, r1, r2, r3, ip, lr}

	subs	pc, lr, #4			/* adjust return */
  100084:	e25ef004 	subs	pc, lr, #4

00100088 <PrefetchAbortHandler>:

PrefetchAbortHandler:				/* Prefetch Abort handler */
#ifdef CONFIG_ARM_ERRATA_775420
	dsb
  100088:	f57ff04f 	dsb	sy
#endif
	stmdb	sp!,{r0-r3,r12,lr}		/* state save from compiled code */
  10008c:	e92d500f 	push	{r0, r1, r2, r3, ip, lr}

	bl	PrefetchAbortInterrupt		/* PrefetchAbortInterrupt: call C function here */
  100090:	eb001221 	bl	10491c <PrefetchAbortInterrupt>

	ldmia	sp!,{r0-r3,r12,lr}		/* state restore from compiled code */
  100094:	e8bd500f 	pop	{r0, r1, r2, r3, ip, lr}

	subs	pc, lr, #4			/* adjust return */
  100098:	e25ef004 	subs	pc, lr, #4

0010009c <_boot>:
_prestart:
_boot:

#if XPAR_CPU_ID==0
/* only allow cpu0 through */
	mrc	p15,0,r1,c0,c0,5
  10009c:	ee101fb0 	mrc	15, 0, r1, cr0, cr0, {5}
	and	r1, r1, #0xf
  1000a0:	e201100f 	and	r1, r1, #15
	cmp	r1, #0
  1000a4:	e3510000 	cmp	r1, #0
	beq	OKToRun
  1000a8:	0a000001 	beq	1000b4 <OKToRun>

001000ac <EndlessLoop0>:
EndlessLoop0:
	wfe
  1000ac:	e320f002 	wfe
	b	EndlessLoop0
  1000b0:	eafffffd 	b	1000ac <EndlessLoop0>

001000b4 <OKToRun>:
	wfe
	b	EndlessLoop1
#endif

OKToRun:
	mrc     p15, 0, r0, c0, c0, 0		/* Get the revision */
  1000b4:	ee100f10 	mrc	15, 0, r0, cr0, cr0, {0}
	and     r5, r0, #0x00f00000 
  1000b8:	e200560f 	and	r5, r0, #15728640	; 0xf00000
	and     r6, r0, #0x0000000f
  1000bc:	e200600f 	and	r6, r0, #15
	orr     r6, r6, r5, lsr #20-4
  1000c0:	e1866825 	orr	r6, r6, r5, lsr #16

#ifdef CONFIG_ARM_ERRATA_742230
        cmp     r6, #0x22                       /* only present up to r2p2 */
  1000c4:	e3560022 	cmp	r6, #34	; 0x22
        mrcle   p15, 0, r10, c15, c0, 1         /* read diagnostic register */
  1000c8:	de1faf30 	mrcle	15, 0, sl, cr15, cr0, {1}
        orrle   r10, r10, #1 << 4               /* set bit #4 */
  1000cc:	d38aa010 	orrle	sl, sl, #16
        mcrle   p15, 0, r10, c15, c0, 1         /* write diagnostic register */
  1000d0:	de0faf30 	mcrle	15, 0, sl, cr15, cr0, {1}
#endif

#ifdef CONFIG_ARM_ERRATA_743622
	teq     r5, #0x00200000                 /* only present in r2p* */
  1000d4:	e3350602 	teq	r5, #2097152	; 0x200000
	mrceq   p15, 0, r10, c15, c0, 1         /* read diagnostic register */
  1000d8:	0e1faf30 	mrceq	15, 0, sl, cr15, cr0, {1}
	orreq   r10, r10, #1 << 6               /* set bit #6 */
  1000dc:	038aa040 	orreq	sl, sl, #64	; 0x40
	mcreq   p15, 0, r10, c15, c0, 1         /* write diagnostic register */
  1000e0:	0e0faf30 	mcreq	15, 0, sl, cr15, cr0, {1}
#endif

	/* set VBAR to the _vector_table address in linker script */
	ldr	r0, =vector_base
  1000e4:	e59f0270 	ldr	r0, [pc, #624]	; 10035c <finished+0x14>
	mcr	p15, 0, r0, c12, c0, 0
  1000e8:	ee0c0f10 	mcr	15, 0, r0, cr12, cr0, {0}

	/*set scu enable bit in scu*/
	ldr	r7, =0xf8f00000
  1000ec:	e59f726c 	ldr	r7, [pc, #620]	; 100360 <finished+0x18>
	ldr	r0, [r7]
  1000f0:	e5970000 	ldr	r0, [r7]
	orr	r0, r0, #0x1  
  1000f4:	e3800001 	orr	r0, r0, #1
	str	r0, [r7]
  1000f8:	e5870000 	str	r0, [r7]

	/*invalidate scu*/
	ldr	r7, =0xf8f0000c
  1000fc:	e59f7260 	ldr	r7, [pc, #608]	; 100364 <finished+0x1c>
	ldr	r6, =0xffff
  100100:	e59f6260 	ldr	r6, [pc, #608]	; 100368 <finished+0x20>
	str	r6, [r7]
  100104:	e5876000 	str	r6, [r7]

	/* Write to ACTLR */
	mrc	p15, 0, r0, c1, c0, 1		/* Read ACTLR*/
  100108:	ee110f30 	mrc	15, 0, r0, cr1, cr0, {1}
	orr	r0, r0, #(0x01 << 6)		/* set SMP bit */
  10010c:	e3800040 	orr	r0, r0, #64	; 0x40
	orr	r0, r0, #(0x01 )		/* */		
  100110:	e3800001 	orr	r0, r0, #1
	mcr	p15, 0, r0, c1, c0, 1		/* Write ACTLR*/
  100114:	ee010f30 	mcr	15, 0, r0, cr1, cr0, {1}

/* Invalidate caches and TLBs */
	mov	r0,#0				/* r0 = 0  */
  100118:	e3a00000 	mov	r0, #0
	mcr	p15, 0, r0, c8, c7, 0		/* invalidate TLBs */
  10011c:	ee080f17 	mcr	15, 0, r0, cr8, cr7, {0}
	mcr	p15, 0, r0, c7, c5, 0		/* invalidate icache */
  100120:	ee070f15 	mcr	15, 0, r0, cr7, cr5, {0}
	mcr	p15, 0, r0, c7, c5, 6		/* Invalidate branch predictor array */
  100124:	ee070fd5 	mcr	15, 0, r0, cr7, cr5, {6}
	bl	invalidate_dcache		/* invalidate dcache */
  100128:	eb000067 	bl	1002cc <invalidate_dcache>

/* Invalidate L2c Cache */
/* For AMP, assume running on CPU1. Don't initialize L2 Cache (up to Linux) */
#if USE_AMP!=1
	ldr	r0,=L2CCCrtl			/* Load L2CC base address base + control register */
  10012c:	e59f0238 	ldr	r0, [pc, #568]	; 10036c <finished+0x24>
	mov	r1, #0				/* force the disable bit */
  100130:	e3a01000 	mov	r1, #0
	str	r1, [r0]			/* disable the L2 Caches */
  100134:	e5801000 	str	r1, [r0]

	ldr	r0,=L2CCAuxCrtl			/* Load L2CC base address base + Aux control register */
  100138:	e59f0230 	ldr	r0, [pc, #560]	; 100370 <finished+0x28>
	ldr	r1,[r0]				/* read the register */
  10013c:	e5901000 	ldr	r1, [r0]
	ldr	r2,=L2CCAuxControl		/* set the default bits */
  100140:	e59f222c 	ldr	r2, [pc, #556]	; 100374 <finished+0x2c>
	orr	r1,r1,r2
  100144:	e1811002 	orr	r1, r1, r2
	str	r1, [r0]			/* store the Aux Control Register */
  100148:	e5801000 	str	r1, [r0]

	ldr	r0,=L2CCTAGLatReg		/* Load L2CC base address base + TAG Latency address */
  10014c:	e59f0224 	ldr	r0, [pc, #548]	; 100378 <finished+0x30>
	ldr	r1,=L2CCTAGLatency		/* set the latencies for the TAG*/
  100150:	e59f1224 	ldr	r1, [pc, #548]	; 10037c <finished+0x34>
	str	r1, [r0]			/* store the TAG Latency register Register */
  100154:	e5801000 	str	r1, [r0]

	ldr	r0,=L2CCDataLatReg		/* Load L2CC base address base + Data Latency address */
  100158:	e59f0220 	ldr	r0, [pc, #544]	; 100380 <finished+0x38>
	ldr	r1,=L2CCDataLatency		/* set the latencies for the Data*/
  10015c:	e59f1220 	ldr	r1, [pc, #544]	; 100384 <finished+0x3c>
	str	r1, [r0]			/* store the Data Latency register Register */
  100160:	e5801000 	str	r1, [r0]

	ldr	r0,=L2CCWay			/* Load L2CC base address base + way register*/
  100164:	e59f021c 	ldr	r0, [pc, #540]	; 100388 <finished+0x40>
	ldr	r2, =0xFFFF
  100168:	e59f21f8 	ldr	r2, [pc, #504]	; 100368 <finished+0x20>
	str	r2, [r0]			/* force invalidate */
  10016c:	e5802000 	str	r2, [r0]

	ldr	r0,=L2CCSync			/* need to poll 0x730, PSS_L2CC_CACHE_SYNC_OFFSET */
  100170:	e59f0214 	ldr	r0, [pc, #532]	; 10038c <finished+0x44>

00100174 <Sync>:
						/* Load L2CC base address base + sync register*/
	/* poll for completion */
Sync:	ldr	r1, [r0]
  100174:	e5901000 	ldr	r1, [r0]
	cmp	r1, #0
  100178:	e3510000 	cmp	r1, #0
	bne	Sync
  10017c:	1afffffc 	bne	100174 <Sync>

	ldr	r0,=L2CCIntRaw			/* clear pending interrupts */
  100180:	e59f0208 	ldr	r0, [pc, #520]	; 100390 <finished+0x48>
	ldr	r1,[r0]
  100184:	e5901000 	ldr	r1, [r0]
	ldr	r0,=L2CCIntClear	
  100188:	e59f0204 	ldr	r0, [pc, #516]	; 100394 <finished+0x4c>
	str	r1,[r0]
  10018c:	e5801000 	str	r1, [r0]
#endif

	/* Disable MMU, if enabled */
	mrc	p15, 0, r0, c1, c0, 0		/* read CP15 register 1 */
  100190:	ee110f10 	mrc	15, 0, r0, cr1, cr0, {0}
	bic	r0, r0, #0x1			/* clear bit 0 */
  100194:	e3c00001 	bic	r0, r0, #1
	mcr	p15, 0, r0, c1, c0, 0		/* write value back */
  100198:	ee010f10 	mcr	15, 0, r0, cr1, cr0, {0}
	add	r2, r2, #0x100000		/* next section */
	subs	r3, r3, #1
	bge	mmu_loop			/* loop till 512MB is covered */
#endif

	mrs	r0, cpsr			/* get the current PSR */
  10019c:	e10f0000 	mrs	r0, CPSR
	mvn	r1, #0x1f			/* set up the irq stack pointer */
  1001a0:	e3e0101f 	mvn	r1, #31
	and	r2, r1, r0
  1001a4:	e0012000 	and	r2, r1, r0
	orr	r2, r2, #0x12			/* IRQ mode */
  1001a8:	e3822012 	orr	r2, r2, #18
	msr	cpsr, r2
  1001ac:	e129f002 	msr	CPSR_fc, r2
	ldr	r13,=IRQ_stack			/* IRQ stack pointer */
  1001b0:	e59fd1e0 	ldr	sp, [pc, #480]	; 100398 <finished+0x50>

	mrs	r0, cpsr			/* get the current PSR */
  1001b4:	e10f0000 	mrs	r0, CPSR
	mvn	r1, #0x1f			/* set up the supervisor stack pointer */
  1001b8:	e3e0101f 	mvn	r1, #31
	and	r2, r1, r0
  1001bc:	e0012000 	and	r2, r1, r0
	orr	r2, r2, #0x13			/* supervisor mode */
  1001c0:	e3822013 	orr	r2, r2, #19
	msr	cpsr, r2
  1001c4:	e129f002 	msr	CPSR_fc, r2
	ldr	r13,=SPV_stack			/* Supervisor stack pointer */
  1001c8:	e59fd1cc 	ldr	sp, [pc, #460]	; 10039c <finished+0x54>

	mrs	r0, cpsr			/* get the current PSR */
  1001cc:	e10f0000 	mrs	r0, CPSR
	mvn	r1, #0x1f			/* set up the Abort  stack pointer */
  1001d0:	e3e0101f 	mvn	r1, #31
	and	r2, r1, r0
  1001d4:	e0012000 	and	r2, r1, r0
	orr	r2, r2, #0x17			/* Abort mode */
  1001d8:	e3822017 	orr	r2, r2, #23
	msr	cpsr, r2
  1001dc:	e129f002 	msr	CPSR_fc, r2
	ldr	r13,=Abort_stack		/* Abort stack pointer */
  1001e0:	e59fd1b8 	ldr	sp, [pc, #440]	; 1003a0 <finished+0x58>

	mrs	r0, cpsr			/* get the current PSR */
  1001e4:	e10f0000 	mrs	r0, CPSR
	mvn	r1, #0x1f			/* set up the FIQ stack pointer */
  1001e8:	e3e0101f 	mvn	r1, #31
	and	r2, r1, r0
  1001ec:	e0012000 	and	r2, r1, r0
	orr	r2, r2, #0x11			/* FIQ mode */
  1001f0:	e3822011 	orr	r2, r2, #17
	msr	cpsr, r2
  1001f4:	e129f002 	msr	CPSR_fc, r2
	ldr	r13,=FIQ_stack			/* FIQ stack pointer */
  1001f8:	e59fd1a4 	ldr	sp, [pc, #420]	; 1003a4 <finished+0x5c>

	mrs	r0, cpsr			/* get the current PSR */
  1001fc:	e10f0000 	mrs	r0, CPSR
	mvn	r1, #0x1f			/* set up the Undefine stack pointer */
  100200:	e3e0101f 	mvn	r1, #31
	and	r2, r1, r0
  100204:	e0012000 	and	r2, r1, r0
	orr	r2, r2, #0x1b			/* Undefine mode */
  100208:	e382201b 	orr	r2, r2, #27
	msr	cpsr, r2
  10020c:	e129f002 	msr	CPSR_fc, r2
	ldr	r13,=Undef_stack		/* Undefine stack pointer */
  100210:	e59fd190 	ldr	sp, [pc, #400]	; 1003a8 <finished+0x60>

	mrs	r0, cpsr			/* get the current PSR */
  100214:	e10f0000 	mrs	r0, CPSR
	mvn	r1, #0x1f			/* set up the system stack pointer */
  100218:	e3e0101f 	mvn	r1, #31
	and	r2, r1, r0
  10021c:	e0012000 	and	r2, r1, r0
	orr	r2, r2, #0x1F			/* SYS mode */
  100220:	e382201f 	orr	r2, r2, #31
	msr	cpsr, r2
  100224:	e129f002 	msr	CPSR_fc, r2
	ldr	r13,=SYS_stack			/* SYS stack pointer */
  100228:	e59fd17c 	ldr	sp, [pc, #380]	; 1003ac <finished+0x64>

	/* enable MMU and cache */

	ldr	r0,=TblBase			/* Load MMU translation table base */
  10022c:	e59f017c 	ldr	r0, [pc, #380]	; 1003b0 <finished+0x68>
	orr	r0, r0, #0x5B			/* Outer-cacheable, WB */
  100230:	e380005b 	orr	r0, r0, #91	; 0x5b
	mcr	15, 0, r0, c2, c0, 0		/* TTB0 */
  100234:	ee020f10 	mcr	15, 0, r0, cr2, cr0, {0}
	
	
	mvn	r0,#0				/* Load MMU domains -- all ones=manager */
  100238:	e3e00000 	mvn	r0, #0
	mcr	p15,0,r0,c3,c0,0
  10023c:	ee030f10 	mcr	15, 0, r0, cr3, cr0, {0}

	/* Enable mmu, icahce and dcache */
	ldr	r0,=CRValMmuCac
  100240:	e59f016c 	ldr	r0, [pc, #364]	; 1003b4 <finished+0x6c>

	mcr	p15,0,r0,c1,c0,0		/* Enable cache and MMU */
  100244:	ee010f10 	mcr	15, 0, r0, cr1, cr0, {0}
	dsb					/* dsb	allow the MMU to start up */
  100248:	f57ff04f 	dsb	sy

	isb					/* isb	flush prefetch buffer */
  10024c:	f57ff06f 	isb	sy

/* For AMP, assume running on CPU1. Don't initialize L2 Cache (up to Linux) */
#if USE_AMP!=1
	ldr	r0,=SLCRUnlockReg		/* Load SLCR base address base + unlock register */
  100250:	e59f0160 	ldr	r0, [pc, #352]	; 1003b8 <finished+0x70>
	ldr	r1,=SLCRUnlockKey	    /* set unlock key */
  100254:	e59f1160 	ldr	r1, [pc, #352]	; 1003bc <finished+0x74>
	str	r1, [r0]		    /* Unlock SLCR */
  100258:	e5801000 	str	r1, [r0]

   	ldr	r0,=SLCRL2cRamReg		/* Load SLCR base address base + l2c Ram Control register */
  10025c:	e59f015c 	ldr	r0, [pc, #348]	; 1003c0 <finished+0x78>
	ldr	r1,=SLCRL2cRamConfig        /* set the configuration value */
  100260:	e59f115c 	ldr	r1, [pc, #348]	; 1003c4 <finished+0x7c>
	str	r1, [r0]	        /* store the L2c Ram Control Register */
  100264:	e5801000 	str	r1, [r0]

   	ldr	r0,=SLCRlockReg         /* Load SLCR base address base + lock register */
  100268:	e59f0158 	ldr	r0, [pc, #344]	; 1003c8 <finished+0x80>
	ldr	r1,=SLCRlockKey	        /* set lock key */
  10026c:	e59f1158 	ldr	r1, [pc, #344]	; 1003cc <finished+0x84>
	str	r1, [r0]	        /* lock SLCR */
  100270:	e5801000 	str	r1, [r0]

	ldr	r0,=L2CCCrtl			/* Load L2CC base address base + control register */
  100274:	e59f00f0 	ldr	r0, [pc, #240]	; 10036c <finished+0x24>
	ldr	r1,[r0]				/* read the register */
  100278:	e5901000 	ldr	r1, [r0]
	mov	r2, #L2CCControl		/* set the enable bit */
  10027c:	e3a02001 	mov	r2, #1
	orr	r1,r1,r2
  100280:	e1811002 	orr	r1, r1, r2
	str	r1, [r0]			/* enable the L2 Caches */
  100284:	e5801000 	str	r1, [r0]
#endif

	mov	r0, r0
  100288:	e1a00000 	nop			; (mov r0, r0)
	mrc	p15, 0, r1, c1, c0, 2		/* read cp access control register (CACR) into r1 */
  10028c:	ee111f50 	mrc	15, 0, r1, cr1, cr0, {2}
	orr	r1, r1, #(0xf << 20)		/* enable full access for p10 & p11 */
  100290:	e381160f 	orr	r1, r1, #15728640	; 0xf00000
	mcr	p15, 0, r1, c1, c0, 2		/* write back into CACR */
  100294:	ee011f50 	mcr	15, 0, r1, cr1, cr0, {2}

	/* enable vfp */
	fmrx	r1, FPEXC			/* read the exception register */
  100298:	eef81a10 	vmrs	r1, fpexc
	orr	r1,r1, #FPEXC_EN		/* set VFP enable bit, leave the others in orig state */
  10029c:	e3811101 	orr	r1, r1, #1073741824	; 0x40000000
	fmxr	FPEXC, r1			/* write back the exception register */
  1002a0:	eee81a10 	vmsr	fpexc, r1

	mrc	p15,0,r0,c1,c0,0		/* flow prediction enable */
  1002a4:	ee110f10 	mrc	15, 0, r0, cr1, cr0, {0}
	orr	r0, r0, #(0x01 << 11)		/* #0x8000 */		
  1002a8:	e3800b02 	orr	r0, r0, #2048	; 0x800
	mcr	p15,0,r0,c1,c0,0
  1002ac:	ee010f10 	mcr	15, 0, r0, cr1, cr0, {0}

	mrc	p15,0,r0,c1,c0,1		/* read Auxiliary Control Register */
  1002b0:	ee110f30 	mrc	15, 0, r0, cr1, cr0, {1}
	orr	r0, r0, #(0x1 << 2)		/* enable Dside prefetch */
  1002b4:	e3800004 	orr	r0, r0, #4
	orr	r0, r0, #(0x1 << 1)		/* enable L2 Prefetch hint */
  1002b8:	e3800002 	orr	r0, r0, #2
	mcr	p15,0,r0,c1,c0,1		/* write Auxiliary Control Register */
  1002bc:	ee010f30 	mcr	15, 0, r0, cr1, cr0, {1}

	b	_start				/* jump to C startup code */
  1002c0:	ea0011a1 	b	10494c <_start>
	and	r0, r0, r0			/* no op */
  1002c4:	e0000000 	and	r0, r0, r0
	
.Ldone:	b	.Ldone				/* Paranoia: we should never get here */
  1002c8:	eafffffe 	b	1002c8 <Sync+0x154>

001002cc <invalidate_dcache>:
 * the whole D-cache. Need to invalidate each line.
 *
 *************************************************************************
 */
invalidate_dcache:
	mrc	p15, 1, r0, c0, c0, 1		/* read CLIDR */
  1002cc:	ee300f30 	mrc	15, 1, r0, cr0, cr0, {1}
	ands	r3, r0, #0x7000000
  1002d0:	e2103407 	ands	r3, r0, #117440512	; 0x7000000
	mov	r3, r3, lsr #23			/* cache level value (naturally aligned) */
  1002d4:	e1a03ba3 	lsr	r3, r3, #23
	beq	finished
  1002d8:	0a00001a 	beq	100348 <finished>
	mov	r10, #0				/* start with level 0 */
  1002dc:	e3a0a000 	mov	sl, #0

001002e0 <loop1>:
loop1:
	add	r2, r10, r10, lsr #1		/* work out 3xcachelevel */
  1002e0:	e08a20aa 	add	r2, sl, sl, lsr #1
	mov	r1, r0, lsr r2			/* bottom 3 bits are the Cache type for this level */
  1002e4:	e1a01230 	lsr	r1, r0, r2
	and	r1, r1, #7			/* get those 3 bits alone */
  1002e8:	e2011007 	and	r1, r1, #7
	cmp	r1, #2
  1002ec:	e3510002 	cmp	r1, #2
	blt	skip				/* no cache or only instruction cache at this level */
  1002f0:	ba000011 	blt	10033c <skip>
	mcr	p15, 2, r10, c0, c0, 0		/* write the Cache Size selection register */
  1002f4:	ee40af10 	mcr	15, 2, sl, cr0, cr0, {0}
	isb					/* isb to sync the change to the CacheSizeID reg */
  1002f8:	f57ff06f 	isb	sy
	mrc	p15, 1, r1, c0, c0, 0		/* reads current Cache Size ID register */
  1002fc:	ee301f10 	mrc	15, 1, r1, cr0, cr0, {0}
	and	r2, r1, #7			/* extract the line length field */
  100300:	e2012007 	and	r2, r1, #7
	add	r2, r2, #4			/* add 4 for the line length offset (log2 16 bytes) */
  100304:	e2822004 	add	r2, r2, #4
	ldr	r4, =0x3ff
  100308:	e59f40c0 	ldr	r4, [pc, #192]	; 1003d0 <finished+0x88>
	ands	r4, r4, r1, lsr #3		/* r4 is the max number on the way size (right aligned) */
  10030c:	e01441a1 	ands	r4, r4, r1, lsr #3
	clz	r5, r4				/* r5 is the bit position of the way size increment */
  100310:	e16f5f14 	clz	r5, r4
	ldr	r7, =0x7fff
  100314:	e59f70b8 	ldr	r7, [pc, #184]	; 1003d4 <finished+0x8c>
	ands	r7, r7, r1, lsr #13		/* r7 is the max number of the index size (right aligned) */
  100318:	e01776a1 	ands	r7, r7, r1, lsr #13

0010031c <loop2>:
loop2:
	mov	r9, r4				/* r9 working copy of the max way size (right aligned) */
  10031c:	e1a09004 	mov	r9, r4

00100320 <loop3>:
loop3:
	orr	r11, r10, r9, lsl r5		/* factor in the way number and cache number into r11 */
  100320:	e18ab519 	orr	fp, sl, r9, lsl r5
	orr	r11, r11, r7, lsl r2		/* factor in the index number */
  100324:	e18bb217 	orr	fp, fp, r7, lsl r2
	mcr	p15, 0, r11, c7, c14, 2		/* clean & invalidate by set/way */
  100328:	ee07bf5e 	mcr	15, 0, fp, cr7, cr14, {2}
	subs	r9, r9, #1			/* decrement the way number */
  10032c:	e2599001 	subs	r9, r9, #1
	bge	loop3
  100330:	aafffffa 	bge	100320 <loop3>
	subs	r7, r7, #1			/* decrement the index */
  100334:	e2577001 	subs	r7, r7, #1
	bge	loop2
  100338:	aafffff7 	bge	10031c <loop2>

0010033c <skip>:
skip:
	add	r10, r10, #2			/* increment the cache number */
  10033c:	e28aa002 	add	sl, sl, #2
	cmp	r3, r10
  100340:	e153000a 	cmp	r3, sl
	bgt	loop1
  100344:	caffffe5 	bgt	1002e0 <loop1>

00100348 <finished>:

finished:
	mov	r10, #0				/* swith back to cache level 0 */
  100348:	e3a0a000 	mov	sl, #0
	mcr	p15, 2, r10, c0, c0, 0		/* select current cache level in cssr */
  10034c:	ee40af10 	mcr	15, 2, sl, cr0, cr0, {0}
	dsb
  100350:	f57ff04f 	dsb	sy
	isb
  100354:	f57ff06f 	isb	sy

	bx	lr
  100358:	e12fff1e 	bx	lr
	orreq   r10, r10, #1 << 6               /* set bit #6 */
	mcreq   p15, 0, r10, c15, c0, 1         /* write diagnostic register */
#endif

	/* set VBAR to the _vector_table address in linker script */
	ldr	r0, =vector_base
  10035c:	00100000 	.word	0x00100000
	mcr	p15, 0, r0, c12, c0, 0

	/*set scu enable bit in scu*/
	ldr	r7, =0xf8f00000
  100360:	f8f00000 	.word	0xf8f00000
	ldr	r0, [r7]
	orr	r0, r0, #0x1  
	str	r0, [r7]

	/*invalidate scu*/
	ldr	r7, =0xf8f0000c
  100364:	f8f0000c 	.word	0xf8f0000c
	ldr	r6, =0xffff
  100368:	0000ffff 	.word	0x0000ffff
	bl	invalidate_dcache		/* invalidate dcache */

/* Invalidate L2c Cache */
/* For AMP, assume running on CPU1. Don't initialize L2 Cache (up to Linux) */
#if USE_AMP!=1
	ldr	r0,=L2CCCrtl			/* Load L2CC base address base + control register */
  10036c:	f8f02100 	.word	0xf8f02100
	mov	r1, #0				/* force the disable bit */
	str	r1, [r0]			/* disable the L2 Caches */

	ldr	r0,=L2CCAuxCrtl			/* Load L2CC base address base + Aux control register */
  100370:	f8f02104 	.word	0xf8f02104
	ldr	r1,[r0]				/* read the register */
	ldr	r2,=L2CCAuxControl		/* set the default bits */
  100374:	72360000 	.word	0x72360000
	orr	r1,r1,r2
	str	r1, [r0]			/* store the Aux Control Register */

	ldr	r0,=L2CCTAGLatReg		/* Load L2CC base address base + TAG Latency address */
  100378:	f8f02108 	.word	0xf8f02108
	ldr	r1,=L2CCTAGLatency		/* set the latencies for the TAG*/
  10037c:	00000111 	.word	0x00000111
	str	r1, [r0]			/* store the TAG Latency register Register */

	ldr	r0,=L2CCDataLatReg		/* Load L2CC base address base + Data Latency address */
  100380:	f8f0210c 	.word	0xf8f0210c
	ldr	r1,=L2CCDataLatency		/* set the latencies for the Data*/
  100384:	00000121 	.word	0x00000121
	str	r1, [r0]			/* store the Data Latency register Register */

	ldr	r0,=L2CCWay			/* Load L2CC base address base + way register*/
  100388:	f8f0277c 	.word	0xf8f0277c
	ldr	r2, =0xFFFF
	str	r2, [r0]			/* force invalidate */

	ldr	r0,=L2CCSync			/* need to poll 0x730, PSS_L2CC_CACHE_SYNC_OFFSET */
  10038c:	f8f02730 	.word	0xf8f02730
	/* poll for completion */
Sync:	ldr	r1, [r0]
	cmp	r1, #0
	bne	Sync

	ldr	r0,=L2CCIntRaw			/* clear pending interrupts */
  100390:	f8f0221c 	.word	0xf8f0221c
	ldr	r1,[r0]
	ldr	r0,=L2CCIntClear	
  100394:	f8f02220 	.word	0xf8f02220
	mrs	r0, cpsr			/* get the current PSR */
	mvn	r1, #0x1f			/* set up the irq stack pointer */
	and	r2, r1, r0
	orr	r2, r2, #0x12			/* IRQ mode */
	msr	cpsr, r2
	ldr	r13,=IRQ_stack			/* IRQ stack pointer */
  100398:	0012e0d0 	.word	0x0012e0d0
	mrs	r0, cpsr			/* get the current PSR */
	mvn	r1, #0x1f			/* set up the supervisor stack pointer */
	and	r2, r1, r0
	orr	r2, r2, #0x13			/* supervisor mode */
	msr	cpsr, r2
	ldr	r13,=SPV_stack			/* Supervisor stack pointer */
  10039c:	0012e8d0 	.word	0x0012e8d0
	mrs	r0, cpsr			/* get the current PSR */
	mvn	r1, #0x1f			/* set up the Abort  stack pointer */
	and	r2, r1, r0
	orr	r2, r2, #0x17			/* Abort mode */
	msr	cpsr, r2
	ldr	r13,=Abort_stack		/* Abort stack pointer */
  1003a0:	0012ecd0 	.word	0x0012ecd0
	mrs	r0, cpsr			/* get the current PSR */
	mvn	r1, #0x1f			/* set up the FIQ stack pointer */
	and	r2, r1, r0
	orr	r2, r2, #0x11			/* FIQ mode */
	msr	cpsr, r2
	ldr	r13,=FIQ_stack			/* FIQ stack pointer */
  1003a4:	0012f0d0 	.word	0x0012f0d0
	mrs	r0, cpsr			/* get the current PSR */
	mvn	r1, #0x1f			/* set up the Undefine stack pointer */
	and	r2, r1, r0
	orr	r2, r2, #0x1b			/* Undefine mode */
	msr	cpsr, r2
	ldr	r13,=Undef_stack		/* Undefine stack pointer */
  1003a8:	0012f4d0 	.word	0x0012f4d0
	mrs	r0, cpsr			/* get the current PSR */
	mvn	r1, #0x1f			/* set up the system stack pointer */
	and	r2, r1, r0
	orr	r2, r2, #0x1F			/* SYS mode */
	msr	cpsr, r2
	ldr	r13,=SYS_stack			/* SYS stack pointer */
  1003ac:	0012c0d0 	.word	0x0012c0d0

	/* enable MMU and cache */

	ldr	r0,=TblBase			/* Load MMU translation table base */
  1003b0:	00124000 	.word	0x00124000
	
	mvn	r0,#0				/* Load MMU domains -- all ones=manager */
	mcr	p15,0,r0,c3,c0,0

	/* Enable mmu, icahce and dcache */
	ldr	r0,=CRValMmuCac
  1003b4:	00001005 	.word	0x00001005

	isb					/* isb	flush prefetch buffer */

/* For AMP, assume running on CPU1. Don't initialize L2 Cache (up to Linux) */
#if USE_AMP!=1
	ldr	r0,=SLCRUnlockReg		/* Load SLCR base address base + unlock register */
  1003b8:	f8000008 	.word	0xf8000008
	ldr	r1,=SLCRUnlockKey	    /* set unlock key */
  1003bc:	0000df0d 	.word	0x0000df0d
	str	r1, [r0]		    /* Unlock SLCR */

   	ldr	r0,=SLCRL2cRamReg		/* Load SLCR base address base + l2c Ram Control register */
  1003c0:	f8000a1c 	.word	0xf8000a1c
	ldr	r1,=SLCRL2cRamConfig        /* set the configuration value */
  1003c4:	00020202 	.word	0x00020202
	str	r1, [r0]	        /* store the L2c Ram Control Register */

   	ldr	r0,=SLCRlockReg         /* Load SLCR base address base + lock register */
  1003c8:	f8000004 	.word	0xf8000004
	ldr	r1,=SLCRlockKey	        /* set lock key */
  1003cc:	0000767b 	.word	0x0000767b
	mcr	p15, 2, r10, c0, c0, 0		/* write the Cache Size selection register */
	isb					/* isb to sync the change to the CacheSizeID reg */
	mrc	p15, 1, r1, c0, c0, 0		/* reads current Cache Size ID register */
	and	r2, r1, #7			/* extract the line length field */
	add	r2, r2, #4			/* add 4 for the line length offset (log2 16 bytes) */
	ldr	r4, =0x3ff
  1003d0:	000003ff 	.word	0x000003ff
	ands	r4, r4, r1, lsr #3		/* r4 is the max number on the way size (right aligned) */
	clz	r5, r4				/* r5 is the bit position of the way size increment */
	ldr	r7, =0x7fff
  1003d4:	00007fff 	.word	0x00007fff

001003d8 <deregister_tm_clones>:
  1003d8:	e92d4008 	push	{r3, lr}
  1003dc:	e30004ec 	movw	r0, #1260	; 0x4ec
  1003e0:	e59f3024 	ldr	r3, [pc, #36]	; 10040c <deregister_tm_clones+0x34>
  1003e4:	e3400012 	movt	r0, #18
  1003e8:	e0603003 	rsb	r3, r0, r3
  1003ec:	e3530006 	cmp	r3, #6
  1003f0:	98bd8008 	popls	{r3, pc}
  1003f4:	e3003000 	movw	r3, #0
  1003f8:	e3403000 	movt	r3, #0
  1003fc:	e3530000 	cmp	r3, #0
  100400:	08bd8008 	popeq	{r3, pc}
  100404:	e12fff33 	blx	r3
  100408:	e8bd8008 	pop	{r3, pc}
  10040c:	001204ef 	.word	0x001204ef

00100410 <register_tm_clones>:
  100410:	e92d4008 	push	{r3, lr}
  100414:	e30004ec 	movw	r0, #1260	; 0x4ec
  100418:	e30034ec 	movw	r3, #1260	; 0x4ec
  10041c:	e3400012 	movt	r0, #18
  100420:	e3403012 	movt	r3, #18
  100424:	e0603003 	rsb	r3, r0, r3
  100428:	e1a03143 	asr	r3, r3, #2
  10042c:	e0833fa3 	add	r3, r3, r3, lsr #31
  100430:	e1b010c3 	asrs	r1, r3, #1
  100434:	08bd8008 	popeq	{r3, pc}
  100438:	e3002000 	movw	r2, #0
  10043c:	e3402000 	movt	r2, #0
  100440:	e3520000 	cmp	r2, #0
  100444:	08bd8008 	popeq	{r3, pc}
  100448:	e12fff32 	blx	r2
  10044c:	e8bd8008 	pop	{r3, pc}

00100450 <__do_global_dtors_aux>:
  100450:	e92d4010 	push	{r4, lr}
  100454:	e3084018 	movw	r4, #32792	; 0x8018
  100458:	e3404012 	movt	r4, #18
  10045c:	e5d43000 	ldrb	r3, [r4]
  100460:	e3530000 	cmp	r3, #0
  100464:	18bd8010 	popne	{r4, pc}
  100468:	ebffffda 	bl	1003d8 <deregister_tm_clones>
  10046c:	e3003000 	movw	r3, #0
  100470:	e3403000 	movt	r3, #0
  100474:	e3530000 	cmp	r3, #0
  100478:	0a000002 	beq	100488 <__do_global_dtors_aux+0x38>
  10047c:	e30004ec 	movw	r0, #1260	; 0x4ec
  100480:	e3400012 	movt	r0, #18
  100484:	e320f000 	nop	{0}
  100488:	e3a03001 	mov	r3, #1
  10048c:	e5c43000 	strb	r3, [r4]
  100490:	e8bd8010 	pop	{r4, pc}

00100494 <frame_dummy>:
  100494:	e92d4008 	push	{r3, lr}
  100498:	e3003000 	movw	r3, #0
  10049c:	e3403000 	movt	r3, #0
  1004a0:	e3530000 	cmp	r3, #0
  1004a4:	0a000004 	beq	1004bc <frame_dummy+0x28>
  1004a8:	e30004ec 	movw	r0, #1260	; 0x4ec
  1004ac:	e308101c 	movw	r1, #32796	; 0x801c
  1004b0:	e3400012 	movt	r0, #18
  1004b4:	e3401012 	movt	r1, #18
  1004b8:	e320f000 	nop	{0}
  1004bc:	e30004e8 	movw	r0, #1256	; 0x4e8
  1004c0:	e3400012 	movt	r0, #18
  1004c4:	e5903000 	ldr	r3, [r0]
  1004c8:	e3530000 	cmp	r3, #0
  1004cc:	0a000004 	beq	1004e4 <frame_dummy+0x50>
  1004d0:	e3003000 	movw	r3, #0
  1004d4:	e3403000 	movt	r3, #0
  1004d8:	e3530000 	cmp	r3, #0
  1004dc:	0a000000 	beq	1004e4 <frame_dummy+0x50>
  1004e0:	e12fff33 	blx	r3
  1004e4:	e8bd4008 	pop	{r3, lr}
  1004e8:	eaffffc8 	b	100410 <register_tm_clones>

001004ec <arm_cmplx_dot_prod_f32>:
  float32_t * pSrcA,
  float32_t * pSrcB,
  uint32_t numSamples,
  float32_t * realResult,
  float32_t * imagResult)
{
  1004ec:	e92d0ff0 	push	{r4, r5, r6, r7, r8, r9, sl, fp}
  1004f0:	e24dd030 	sub	sp, sp, #48	; 0x30
  1004f4:	e58d200c 	str	r2, [sp, #12]
  acc3 = vdupq_n_f32(0.0f);
  acc4 = vdupq_n_f32(0.0f);

  /* First part of the processing with instrinsics.  Compute 16 outputs at a time.     
   ** second and third loop below computes remaining 1 to 15 samples. */
  while(blkCnt > 0)
  1004f8:	e1b02222 	lsrs	r2, r2, #4
  float32_t * pSrcA,
  float32_t * pSrcB,
  uint32_t numSamples,
  float32_t * realResult,
  float32_t * imagResult)
{
  1004fc:	e1a0b000 	mov	fp, r0
}

__extension__ static __inline float32x4_t __attribute__ ((__always_inline__))
vdupq_n_f32 (float32_t __a)
{
  return (float32x4_t)__builtin_neon_vdup_nv4sf ((__builtin_neon_sf) __a);
  100500:	f2c00050 	vmov.i32	q8, #0	; 0x00000000
  100504:	e1a05001 	mov	r5, r1
  acc3 = vdupq_n_f32(0.0f);
  acc4 = vdupq_n_f32(0.0f);

  /* First part of the processing with instrinsics.  Compute 16 outputs at a time.     
   ** second and third loop below computes remaining 1 to 15 samples. */
  while(blkCnt > 0)
  100508:	e58d2010 	str	r2, [sp, #16]
  float32_t * pSrcA,
  float32_t * pSrcB,
  uint32_t numSamples,
  float32_t * realResult,
  float32_t * imagResult)
{
  10050c:	e58d3014 	str	r3, [sp, #20]
  100510:	f26061f0 	vorr	q11, q8, q8
  100514:	f26041f0 	vorr	q10, q8, q8
  100518:	f26021f0 	vorr	q9, q8, q8
  acc3 = vdupq_n_f32(0.0f);
  acc4 = vdupq_n_f32(0.0f);

  /* First part of the processing with instrinsics.  Compute 16 outputs at a time.     
   ** second and third loop below computes remaining 1 to 15 samples. */
  while(blkCnt > 0)
  10051c:	0a000038 	beq	100604 <arm_cmplx_dot_prod_f32+0x118>
  100520:	e58d2008 	str	r2, [sp, #8]
  100524:	e1a03001 	mov	r3, r1
  100528:	e1a02000 	mov	r2, r0
  10052c:	e58d0018 	str	r0, [sp, #24]
  100530:	e58d101c 	str	r1, [sp, #28]
}

__extension__ static __inline float32x4_t __attribute__ ((__always_inline__))
vld1q_f32 (const float32_t * __a)
{
  return (float32x4_t)__builtin_neon_vld1v4sf ((const __builtin_neon_sf *) __a);
  100534:	e1a0c002 	mov	ip, r2
  100538:	e1a01003 	mov	r1, r3
  10053c:	e2820020 	add	r0, r2, #32
  100540:	e2839020 	add	r9, r3, #32
  100544:	f46caa8d 	vld1.32	{d26-d27}, [ip]!
  100548:	e282b030 	add	fp, r2, #48	; 0x30
  10054c:	e283a030 	add	sl, r3, #48	; 0x30
  100550:	e59d7008 	ldr	r7, [sp, #8]
  100554:	f4618a8d 	vld1.32	{d24-d25}, [r1]!
  100558:	e2824050 	add	r4, r2, #80	; 0x50
}

__extension__ static __inline float32x4_t __attribute__ ((__always_inline__))
vmlaq_f32 (float32x4_t __a, float32x4_t __b, float32x4_t __c)
{
  return (float32x4_t)__builtin_neon_vmlav4sf (__a, __b, __c, 3);
  10055c:	f24a0df8 	vmla.f32	q8, q13, q12
}

__extension__ static __inline float32x4_t __attribute__ ((__always_inline__))
vld1q_f32 (const float32_t * __a)
{
  return (float32x4_t)__builtin_neon_vld1v4sf ((const __builtin_neon_sf *) __a);
  100560:	e2828040 	add	r8, r2, #64	; 0x40
  100564:	f46cea8f 	vld1.32	{d30-d31}, [ip]
  100568:	e2577001 	subs	r7, r7, #1
  10056c:	e58d4004 	str	r4, [sp, #4]
  100570:	e2835040 	add	r5, r3, #64	; 0x40
  100574:	f4618a8f 	vld1.32	{d24-d25}, [r1]
  100578:	e2834050 	add	r4, r3, #80	; 0x50
}

__extension__ static __inline float32x4_t __attribute__ ((__always_inline__))
vmlaq_f32 (float32x4_t __a, float32x4_t __b, float32x4_t __c)
{
  return (float32x4_t)__builtin_neon_vmlav4sf (__a, __b, __c, 3);
  10057c:	f24e6df8 	vmla.f32	q11, q15, q12
}

__extension__ static __inline float32x4_t __attribute__ ((__always_inline__))
vld1q_f32 (const float32_t * __a)
{
  return (float32x4_t)__builtin_neon_vld1v4sf ((const __builtin_neon_sf *) __a);
  100580:	e283c060 	add	ip, r3, #96	; 0x60
  100584:	f460ca8f 	vld1.32	{d28-d29}, [r0]
  100588:	e2821060 	add	r1, r2, #96	; 0x60
  10058c:	e58d7008 	str	r7, [sp, #8]
  100590:	e2826070 	add	r6, r2, #112	; 0x70
  100594:	f4698a8f 	vld1.32	{d24-d25}, [r9]
  100598:	e2830070 	add	r0, r3, #112	; 0x70
}

__extension__ static __inline float32x4_t __attribute__ ((__always_inline__))
vmlaq_f32 (float32x4_t __a, float32x4_t __b, float32x4_t __c)
{
  return (float32x4_t)__builtin_neon_vmlav4sf (__a, __b, __c, 3);
  10059c:	f24c4df8 	vmla.f32	q10, q14, q12
}

__extension__ static __inline float32x4_t __attribute__ ((__always_inline__))
vld1q_f32 (const float32_t * __a)
{
  return (float32x4_t)__builtin_neon_vld1v4sf ((const __builtin_neon_sf *) __a);
  1005a0:	e2822080 	add	r2, r2, #128	; 0x80
  1005a4:	f46baa8f 	vld1.32	{d26-d27}, [fp]
  1005a8:	e2833080 	add	r3, r3, #128	; 0x80
  1005ac:	e59d7004 	ldr	r7, [sp, #4]
  1005b0:	f46a8a8f 	vld1.32	{d24-d25}, [sl]
}

__extension__ static __inline float32x4_t __attribute__ ((__always_inline__))
vmlaq_f32 (float32x4_t __a, float32x4_t __b, float32x4_t __c)
{
  return (float32x4_t)__builtin_neon_vmlav4sf (__a, __b, __c, 3);
  1005b4:	f24a2df8 	vmla.f32	q9, q13, q12
}

__extension__ static __inline float32x4_t __attribute__ ((__always_inline__))
vld1q_f32 (const float32_t * __a)
{
  return (float32x4_t)__builtin_neon_vld1v4sf ((const __builtin_neon_sf *) __a);
  1005b8:	f4286a8f 	vld1.32	{d6-d7}, [r8]
  1005bc:	f4658a8f 	vld1.32	{d24-d25}, [r5]
}

__extension__ static __inline float32x4_t __attribute__ ((__always_inline__))
vmlaq_f32 (float32x4_t __a, float32x4_t __b, float32x4_t __c)
{
  return (float32x4_t)__builtin_neon_vmlav4sf (__a, __b, __c, 3);
  1005c0:	f2460d78 	vmla.f32	q8, q3, q12
}

__extension__ static __inline float32x4_t __attribute__ ((__always_inline__))
vld1q_f32 (const float32_t * __a)
{
  return (float32x4_t)__builtin_neon_vld1v4sf ((const __builtin_neon_sf *) __a);
  1005c4:	f467ea8f 	vld1.32	{d30-d31}, [r7]
  1005c8:	f4648a8f 	vld1.32	{d24-d25}, [r4]
}

__extension__ static __inline float32x4_t __attribute__ ((__always_inline__))
vmlaq_f32 (float32x4_t __a, float32x4_t __b, float32x4_t __c)
{
  return (float32x4_t)__builtin_neon_vmlav4sf (__a, __b, __c, 3);
  1005cc:	f24e6df8 	vmla.f32	q11, q15, q12
}

__extension__ static __inline float32x4_t __attribute__ ((__always_inline__))
vld1q_f32 (const float32_t * __a)
{
  return (float32x4_t)__builtin_neon_vld1v4sf ((const __builtin_neon_sf *) __a);
  1005d0:	f461ca8f 	vld1.32	{d28-d29}, [r1]
  1005d4:	f46c8a8f 	vld1.32	{d24-d25}, [ip]
}

__extension__ static __inline float32x4_t __attribute__ ((__always_inline__))
vmlaq_f32 (float32x4_t __a, float32x4_t __b, float32x4_t __c)
{
  return (float32x4_t)__builtin_neon_vmlav4sf (__a, __b, __c, 3);
  1005d8:	f24c4df8 	vmla.f32	q10, q14, q12
}

__extension__ static __inline float32x4_t __attribute__ ((__always_inline__))
vld1q_f32 (const float32_t * __a)
{
  return (float32x4_t)__builtin_neon_vld1v4sf ((const __builtin_neon_sf *) __a);
  1005dc:	f466aa8f 	vld1.32	{d26-d27}, [r6]
  1005e0:	f4608a8f 	vld1.32	{d24-d25}, [r0]
}

__extension__ static __inline float32x4_t __attribute__ ((__always_inline__))
vmlaq_f32 (float32x4_t __a, float32x4_t __b, float32x4_t __c)
{
  return (float32x4_t)__builtin_neon_vmlav4sf (__a, __b, __c, 3);
  1005e4:	f24a2df8 	vmla.f32	q9, q13, q12
  1005e8:	1affffd1 	bne	100534 <arm_cmplx_dot_prod_f32+0x48>
 * @param  *realResult real part of the result returned here     
 * @param  *imagResult imaginary part of the result returned here     
 * @return none.     
 */

void arm_cmplx_dot_prod_f32(
  1005ec:	e59d2010 	ldr	r2, [sp, #16]
  1005f0:	e59db018 	ldr	fp, [sp, #24]
  1005f4:	e59d501c 	ldr	r5, [sp, #28]
  1005f8:	e1a03382 	lsl	r3, r2, #7
  1005fc:	e08bb003 	add	fp, fp, r3
  100600:	e0855003 	add	r5, r5, r3
    /* Decrement the loop counter */
    blkCnt--;
  }

  blkCnt = numSamples & 15u;
  blkCnt = blkCnt >> 2u;
  100604:	e59d600c 	ldr	r6, [sp, #12]
}

__extension__ static __inline float32x4_t __attribute__ ((__always_inline__))
vaddq_f32 (float32x4_t __a, float32x4_t __b)
{
  return (float32x4_t)__builtin_neon_vaddv4sf (__a, __b, 3);
  100608:	f2400de6 	vadd.f32	q8, q8, q11
  10060c:	f2442de2 	vadd.f32	q9, q10, q9
  100610:	e7e14156 	ubfx	r4, r6, #2, #2

  /* If the blockSize is not a multiple of 16, compute remaining output samples.     
   ** Compute multiple of 4 samples at a time in second loop.  
   ** and remaining 1 to 3 samples in third loop. */

  while(blkCnt > 0)
  100614:	e3540000 	cmp	r4, #0
  100618:	0a000011 	beq	100664 <arm_cmplx_dot_prod_f32+0x178>
  10061c:	e1a0c004 	mov	ip, r4
  100620:	e1a00005 	mov	r0, r5
  100624:	e1a0100b 	mov	r1, fp
}

__extension__ static __inline float32x4_t __attribute__ ((__always_inline__))
vld1q_f32 (const float32_t * __a)
{
  return (float32x4_t)__builtin_neon_vld1v4sf ((const __builtin_neon_sf *) __a);
  100628:	e1a02001 	mov	r2, r1
  10062c:	e1a03000 	mov	r3, r0
  100630:	e25cc001 	subs	ip, ip, #1
 * @param  *realResult real part of the result returned here     
 * @param  *imagResult imaginary part of the result returned here     
 * @return none.     
 */

void arm_cmplx_dot_prod_f32(
  100634:	e2811020 	add	r1, r1, #32
  100638:	f4626a8d 	vld1.32	{d22-d23}, [r2]!
  10063c:	e2800020 	add	r0, r0, #32
  100640:	f4634a8d 	vld1.32	{d20-d21}, [r3]!
}

__extension__ static __inline float32x4_t __attribute__ ((__always_inline__))
vmlaq_f32 (float32x4_t __a, float32x4_t __b, float32x4_t __c)
{
  return (float32x4_t)__builtin_neon_vmlav4sf (__a, __b, __c, 3);
  100644:	f2460df4 	vmla.f32	q8, q11, q10
}

__extension__ static __inline float32x4_t __attribute__ ((__always_inline__))
vld1q_f32 (const float32_t * __a)
{
  return (float32x4_t)__builtin_neon_vld1v4sf ((const __builtin_neon_sf *) __a);
  100648:	f4626a8f 	vld1.32	{d22-d23}, [r2]
  10064c:	f4634a8f 	vld1.32	{d20-d21}, [r3]
}

__extension__ static __inline float32x4_t __attribute__ ((__always_inline__))
vmlaq_f32 (float32x4_t __a, float32x4_t __b, float32x4_t __c)
{
  return (float32x4_t)__builtin_neon_vmlav4sf (__a, __b, __c, 3);
  100650:	f2462df4 	vmla.f32	q9, q11, q10

  /* If the blockSize is not a multiple of 16, compute remaining output samples.     
   ** Compute multiple of 4 samples at a time in second loop.  
   ** and remaining 1 to 3 samples in third loop. */

  while(blkCnt > 0)
  100654:	1afffff3 	bne	100628 <arm_cmplx_dot_prod_f32+0x13c>
 * @param  *realResult real part of the result returned here     
 * @param  *imagResult imaginary part of the result returned here     
 * @return none.     
 */

void arm_cmplx_dot_prod_f32(
  100658:	e1a04284 	lsl	r4, r4, #5
  10065c:	e08bb004 	add	fp, fp, r4
  100660:	e0855004 	add	r5, r5, r4
}

__extension__ static __inline float32x4_t __attribute__ ((__always_inline__))
vaddq_f32 (float32x4_t __a, float32x4_t __b)
{
  return (float32x4_t)__builtin_neon_vaddv4sf (__a, __b, 3);
  100664:	f2402de2 	vadd.f32	q9, q8, q9

  blkCnt = numSamples & 3u;

  /* If the blockSize is not a multiple of 4, compute any remaining output samples here.     
   ** No intrinsics is used. */
  while(blkCnt > 0)
  100668:	e59d700c 	ldr	r7, [sp, #12]
  10066c:	e2174003 	ands	r4, r7, #3
}

__extension__ static __inline float32_t __attribute__ ((__always_inline__))
vgetq_lane_f32 (float32x4_t __a, const int __b)
{
  return (float32_t)__builtin_neon_vget_lanev4sf (__a, __b, 3);
  100670:	ee133b90 	vmov.32	r3, d19[0]
  100674:	ee337b90 	vmov.32	r7, d19[1]
  100678:	ee122b90 	vmov.32	r2, d18[0]
  10067c:	ee326b90 	vmov.32	r6, d18[1]
  100680:	ee063a10 	vmov	s12, r3
  100684:	ee067a90 	vmov	s13, r7
  100688:	ee072a10 	vmov	s14, r2
  10068c:	ee076a90 	vmov	s15, r6
  /* add 2 accumulators */
  acc1 = vaddq_f32(acc1, acc2);

  /*  (a+bi)(c+di)	= (a*c-b*d) + (a*d+b*c)i */
  /* add and get real result       VMOV.32 r0, d0[0]    */
  real_sum = vgetq_lane_f32(acc1, 0) + vgetq_lane_f32(acc1, 2);
  100690:	ee366a07 	vadd.f32	s12, s12, s14

  /* add and get imaginary result */
  imag_sum = vgetq_lane_f32(acc1, 1) + vgetq_lane_f32(acc1, 3);
  100694:	ee766aa7 	vadd.f32	s13, s13, s15

  blkCnt = numSamples & 3u;

  /* If the blockSize is not a multiple of 4, compute any remaining output samples here.     
   ** No intrinsics is used. */
  while(blkCnt > 0)
  100698:	0a000059 	beq	100804 <arm_cmplx_dot_prod_f32+0x318>
  10069c:	e1a030a4 	lsr	r3, r4, #1
 * @param  *realResult real part of the result returned here     
 * @param  *imagResult imaginary part of the result returned here     
 * @return none.     
 */

void arm_cmplx_dot_prod_f32(
  1006a0:	e2231001 	eor	r1, r3, #1
  1006a4:	e1a02083 	lsl	r2, r3, #1
  1006a8:	e3540001 	cmp	r4, #1
  1006ac:	93811001 	orrls	r1, r1, #1
  1006b0:	e3510000 	cmp	r1, #0
  1006b4:	1a000019 	bne	100720 <arm_cmplx_dot_prod_f32+0x234>
   ** No intrinsics is used. */
  while(blkCnt > 0)
  {
    /*  (a+bi)(c+di)  = (a*c-b*d) + (a*d+b*c)i */
    /* CReal = A[0]* B[0] + A[2]* B[2] + A[4]* B[4] + .....+ A[numSamples-2]* B[numSamples-2] */
    real_sum += (*pSrcA++) * (*pSrcB++);
  1006b8:	eddf7a5a 	vldr	s15, [pc, #360]	; 100828 <arm_cmplx_dot_prod_f32+0x33c>
 * @param  *realResult real part of the result returned here     
 * @param  *imagResult imaginary part of the result returned here     
 * @return none.     
 */

void arm_cmplx_dot_prod_f32(
  1006bc:	e1a03203 	lsl	r3, r3, #4
   ** No intrinsics is used. */
  while(blkCnt > 0)
  {
    /*  (a+bi)(c+di)  = (a*c-b*d) + (a*d+b*c)i */
    /* CReal = A[0]* B[0] + A[2]* B[2] + A[4]* B[4] + .....+ A[numSamples-2]* B[numSamples-2] */
    real_sum += (*pSrcA++) * (*pSrcB++);
  1006c0:	f46b4a8f 	vld1.32	{d20-d21}, [fp]
  1006c4:	e1540002 	cmp	r4, r2
  1006c8:	e0624004 	rsb	r4, r2, r4
  1006cc:	e08bb003 	add	fp, fp, r3
  1006d0:	f4652a8f 	vld1.32	{d18-d19}, [r5]
  1006d4:	e0855003 	add	r5, r5, r3
  1006d8:	ed8d6a08 	vstr	s12, [sp, #32]
  1006dc:	edcd6a09 	vstr	s13, [sp, #36]	; 0x24
  1006e0:	edcd7a0a 	vstr	s15, [sp, #40]	; 0x28
  1006e4:	edcd7a0b 	vstr	s15, [sp, #44]	; 0x2c
  1006e8:	eddd0b08 	vldr	d16, [sp, #32]
  1006ec:	eddd1b0a 	vldr	d17, [sp, #40]	; 0x28
  1006f0:	f2440df2 	vmla.f32	q8, q10, q9
  1006f4:	ee112b90 	vmov.32	r2, d17[0]
  1006f8:	ee316b90 	vmov.32	r6, d17[1]
  1006fc:	ee103b90 	vmov.32	r3, d16[0]
  100700:	ee307b90 	vmov.32	r7, d16[1]
  100704:	ee062a10 	vmov	s12, r2
  100708:	ee066a90 	vmov	s13, r6
  10070c:	ee073a10 	vmov	s14, r3
  100710:	ee077a90 	vmov	s15, r7
  100714:	ee366a07 	vadd.f32	s12, s12, s14
  100718:	ee766aa7 	vadd.f32	s13, s13, s15
  10071c:	0a000038 	beq	100804 <arm_cmplx_dot_prod_f32+0x318>
 * @param  *realResult real part of the result returned here     
 * @param  *imagResult imaginary part of the result returned here     
 * @return none.     
 */

void arm_cmplx_dot_prod_f32(
  100720:	e2443001 	sub	r3, r4, #1
  100724:	e3530003 	cmp	r3, #3
  100728:	9a00003c 	bls	100820 <arm_cmplx_dot_prod_f32+0x334>
  10072c:	e28b2020 	add	r2, fp, #32
  100730:	e2851020 	add	r1, r5, #32
  100734:	e28bc01c 	add	ip, fp, #28
  100738:	e285001c 	add	r0, r5, #28
   ** No intrinsics is used. */
  while(blkCnt > 0)
  {
    /*  (a+bi)(c+di)  = (a*c-b*d) + (a*d+b*c)i */
    /* CReal = A[0]* B[0] + A[2]* B[2] + A[4]* B[4] + .....+ A[numSamples-2]* B[numSamples-2] */
    real_sum += (*pSrcA++) * (*pSrcB++);
  10073c:	ed113a08 	vldr	s6, [r1, #-32]	; 0xffffffe0
  100740:	f5d2f060 	pld	[r2, #96]	; 0x60
  100744:	ed127a08 	vldr	s14, [r2, #-32]	; 0xffffffe0
 * @param  *realResult real part of the result returned here     
 * @param  *imagResult imaginary part of the result returned here     
 * @return none.     
 */

void arm_cmplx_dot_prod_f32(
  100748:	e1a0b002 	mov	fp, r2
  {
    /*  (a+bi)(c+di)  = (a*c-b*d) + (a*d+b*c)i */
    /* CReal = A[0]* B[0] + A[2]* B[2] + A[4]* B[4] + .....+ A[numSamples-2]* B[numSamples-2] */
    real_sum += (*pSrcA++) * (*pSrcB++);
    /* CImag = A[1]* B[1] + A[3]* B[3] + A[5]* B[5] + .....+ A[numSamples-1]* B[numSamples-1] */
    imag_sum += (*pSrcA++) * (*pSrcB++);
  10074c:	ed503a06 	vldr	s7, [r0, #-24]	; 0xffffffe8
 * @param  *realResult real part of the result returned here     
 * @param  *imagResult imaginary part of the result returned here     
 * @return none.     
 */

void arm_cmplx_dot_prod_f32(
  100750:	e1a05001 	mov	r5, r1
  {
    /*  (a+bi)(c+di)  = (a*c-b*d) + (a*d+b*c)i */
    /* CReal = A[0]* B[0] + A[2]* B[2] + A[4]* B[4] + .....+ A[numSamples-2]* B[numSamples-2] */
    real_sum += (*pSrcA++) * (*pSrcB++);
    /* CImag = A[1]* B[1] + A[3]* B[3] + A[5]* B[5] + .....+ A[numSamples-1]* B[numSamples-1] */
    imag_sum += (*pSrcA++) * (*pSrcB++);
  100754:	ed5c7a06 	vldr	s15, [ip, #-24]	; 0xffffffe8
  100758:	e2822020 	add	r2, r2, #32
   ** No intrinsics is used. */
  while(blkCnt > 0)
  {
    /*  (a+bi)(c+di)  = (a*c-b*d) + (a*d+b*c)i */
    /* CReal = A[0]* B[0] + A[2]* B[2] + A[4]* B[4] + .....+ A[numSamples-2]* B[numSamples-2] */
    real_sum += (*pSrcA++) * (*pSrcB++);
  10075c:	ed114a06 	vldr	s8, [r1, #-24]	; 0xffffffe8
  100760:	e2811020 	add	r1, r1, #32
  100764:	ed524a0e 	vldr	s9, [r2, #-56]	; 0xffffffc8
    /* CImag = A[1]* B[1] + A[3]* B[3] + A[5]* B[5] + .....+ A[numSamples-1]* B[numSamples-1] */
    imag_sum += (*pSrcA++) * (*pSrcB++);
  100768:	e1a06000 	mov	r6, r0
  10076c:	ed105a04 	vldr	s10, [r0, #-16]
  100770:	e1a0700c 	mov	r7, ip
  100774:	ed5c5a04 	vldr	s11, [ip, #-16]
  100778:	e2443005 	sub	r3, r4, #5
   ** No intrinsics is used. */
  while(blkCnt > 0)
  {
    /*  (a+bi)(c+di)  = (a*c-b*d) + (a*d+b*c)i */
    /* CReal = A[0]* B[0] + A[2]* B[2] + A[4]* B[4] + .....+ A[numSamples-2]* B[numSamples-2] */
    real_sum += (*pSrcA++) * (*pSrcB++);
  10077c:	ee237a07 	vmul.f32	s14, s6, s14
  100780:	e3530003 	cmp	r3, #3
    /* CImag = A[1]* B[1] + A[3]* B[3] + A[5]* B[5] + .....+ A[numSamples-1]* B[numSamples-1] */
    imag_sum += (*pSrcA++) * (*pSrcB++);
  100784:	ee637aa7 	vmul.f32	s15, s7, s15

    /* Decrement the loop counter */
    blkCnt--;
  100788:	e2443004 	sub	r3, r4, #4
   ** No intrinsics is used. */
  while(blkCnt > 0)
  {
    /*  (a+bi)(c+di)  = (a*c-b*d) + (a*d+b*c)i */
    /* CReal = A[0]* B[0] + A[2]* B[2] + A[4]* B[4] + .....+ A[numSamples-2]* B[numSamples-2] */
    real_sum += (*pSrcA++) * (*pSrcB++);
  10078c:	ed113a0c 	vldr	s6, [r1, #-48]	; 0xffffffd0
    /* CImag = A[1]* B[1] + A[3]* B[3] + A[5]* B[5] + .....+ A[numSamples-1]* B[numSamples-1] */
    imag_sum += (*pSrcA++) * (*pSrcB++);

    /* Decrement the loop counter */
    blkCnt--;
  100790:	e1a04003 	mov	r4, r3
   ** No intrinsics is used. */
  while(blkCnt > 0)
  {
    /*  (a+bi)(c+di)  = (a*c-b*d) + (a*d+b*c)i */
    /* CReal = A[0]* B[0] + A[2]* B[2] + A[4]* B[4] + .....+ A[numSamples-2]* B[numSamples-2] */
    real_sum += (*pSrcA++) * (*pSrcB++);
  100794:	ed523a0c 	vldr	s7, [r2, #-48]	; 0xffffffd0
    /* CImag = A[1]* B[1] + A[3]* B[3] + A[5]* B[5] + .....+ A[numSamples-1]* B[numSamples-1] */
    imag_sum += (*pSrcA++) * (*pSrcB++);
  100798:	e2800020 	add	r0, r0, #32
   ** No intrinsics is used. */
  while(blkCnt > 0)
  {
    /*  (a+bi)(c+di)  = (a*c-b*d) + (a*d+b*c)i */
    /* CReal = A[0]* B[0] + A[2]* B[2] + A[4]* B[4] + .....+ A[numSamples-2]* B[numSamples-2] */
    real_sum += (*pSrcA++) * (*pSrcB++);
  10079c:	ee047a24 	vmla.f32	s14, s8, s9
    /* CImag = A[1]* B[1] + A[3]* B[3] + A[5]* B[5] + .....+ A[numSamples-1]* B[numSamples-1] */
    imag_sum += (*pSrcA++) * (*pSrcB++);
  1007a0:	e28cc020 	add	ip, ip, #32
  1007a4:	ee457a25 	vmla.f32	s15, s10, s11
  1007a8:	ed105a0a 	vldr	s10, [r0, #-40]	; 0xffffffd8
  1007ac:	ed5c5a0a 	vldr	s11, [ip, #-40]	; 0xffffffd8
   ** No intrinsics is used. */
  while(blkCnt > 0)
  {
    /*  (a+bi)(c+di)  = (a*c-b*d) + (a*d+b*c)i */
    /* CReal = A[0]* B[0] + A[2]* B[2] + A[4]* B[4] + .....+ A[numSamples-2]* B[numSamples-2] */
    real_sum += (*pSrcA++) * (*pSrcB++);
  1007b0:	ed114a0a 	vldr	s8, [r1, #-40]	; 0xffffffd8
  1007b4:	ed524a0a 	vldr	s9, [r2, #-40]	; 0xffffffd8
  1007b8:	ee037a23 	vmla.f32	s14, s6, s7
    /* CImag = A[1]* B[1] + A[3]* B[3] + A[5]* B[5] + .....+ A[numSamples-1]* B[numSamples-1] */
    imag_sum += (*pSrcA++) * (*pSrcB++);
  1007bc:	ee457a25 	vmla.f32	s15, s10, s11
  1007c0:	ed965a00 	vldr	s10, [r6]
  1007c4:	edd75a00 	vldr	s11, [r7]
   ** No intrinsics is used. */
  while(blkCnt > 0)
  {
    /*  (a+bi)(c+di)  = (a*c-b*d) + (a*d+b*c)i */
    /* CReal = A[0]* B[0] + A[2]* B[2] + A[4]* B[4] + .....+ A[numSamples-2]* B[numSamples-2] */
    real_sum += (*pSrcA++) * (*pSrcB++);
  1007c8:	ee047a24 	vmla.f32	s14, s8, s9
    /* CImag = A[1]* B[1] + A[3]* B[3] + A[5]* B[5] + .....+ A[numSamples-1]* B[numSamples-1] */
    imag_sum += (*pSrcA++) * (*pSrcB++);
  1007cc:	ee457a25 	vmla.f32	s15, s10, s11
   ** No intrinsics is used. */
  while(blkCnt > 0)
  {
    /*  (a+bi)(c+di)  = (a*c-b*d) + (a*d+b*c)i */
    /* CReal = A[0]* B[0] + A[2]* B[2] + A[4]* B[4] + .....+ A[numSamples-2]* B[numSamples-2] */
    real_sum += (*pSrcA++) * (*pSrcB++);
  1007d0:	ee366a07 	vadd.f32	s12, s12, s14
    /* CImag = A[1]* B[1] + A[3]* B[3] + A[5]* B[5] + .....+ A[numSamples-1]* B[numSamples-1] */
    imag_sum += (*pSrcA++) * (*pSrcB++);
  1007d4:	ee766aa7 	vadd.f32	s13, s13, s15
  1007d8:	8affffd7 	bhi	10073c <arm_cmplx_dot_prod_f32+0x250>
   ** No intrinsics is used. */
  while(blkCnt > 0)
  {
    /*  (a+bi)(c+di)  = (a*c-b*d) + (a*d+b*c)i */
    /* CReal = A[0]* B[0] + A[2]* B[2] + A[4]* B[4] + .....+ A[numSamples-2]* B[numSamples-2] */
    real_sum += (*pSrcA++) * (*pSrcB++);
  1007dc:	ed9b5a00 	vldr	s10, [fp]
 * @param  *realResult real part of the result returned here     
 * @param  *imagResult imaginary part of the result returned here     
 * @return none.     
 */

void arm_cmplx_dot_prod_f32(
  1007e0:	e28bb008 	add	fp, fp, #8
   ** No intrinsics is used. */
  while(blkCnt > 0)
  {
    /*  (a+bi)(c+di)  = (a*c-b*d) + (a*d+b*c)i */
    /* CReal = A[0]* B[0] + A[2]* B[2] + A[4]* B[4] + .....+ A[numSamples-2]* B[numSamples-2] */
    real_sum += (*pSrcA++) * (*pSrcB++);
  1007e4:	edd55a00 	vldr	s11, [r5]

  blkCnt = numSamples & 3u;

  /* If the blockSize is not a multiple of 4, compute any remaining output samples here.     
   ** No intrinsics is used. */
  while(blkCnt > 0)
  1007e8:	e2533001 	subs	r3, r3, #1
  {
    /*  (a+bi)(c+di)  = (a*c-b*d) + (a*d+b*c)i */
    /* CReal = A[0]* B[0] + A[2]* B[2] + A[4]* B[4] + .....+ A[numSamples-2]* B[numSamples-2] */
    real_sum += (*pSrcA++) * (*pSrcB++);
    /* CImag = A[1]* B[1] + A[3]* B[3] + A[5]* B[5] + .....+ A[numSamples-1]* B[numSamples-1] */
    imag_sum += (*pSrcA++) * (*pSrcB++);
  1007ec:	ed957a01 	vldr	s14, [r5, #4]
 * @param  *realResult real part of the result returned here     
 * @param  *imagResult imaginary part of the result returned here     
 * @return none.     
 */

void arm_cmplx_dot_prod_f32(
  1007f0:	e2855008 	add	r5, r5, #8
  {
    /*  (a+bi)(c+di)  = (a*c-b*d) + (a*d+b*c)i */
    /* CReal = A[0]* B[0] + A[2]* B[2] + A[4]* B[4] + .....+ A[numSamples-2]* B[numSamples-2] */
    real_sum += (*pSrcA++) * (*pSrcB++);
    /* CImag = A[1]* B[1] + A[3]* B[3] + A[5]* B[5] + .....+ A[numSamples-1]* B[numSamples-1] */
    imag_sum += (*pSrcA++) * (*pSrcB++);
  1007f4:	ed5b7a01 	vldr	s15, [fp, #-4]
   ** No intrinsics is used. */
  while(blkCnt > 0)
  {
    /*  (a+bi)(c+di)  = (a*c-b*d) + (a*d+b*c)i */
    /* CReal = A[0]* B[0] + A[2]* B[2] + A[4]* B[4] + .....+ A[numSamples-2]* B[numSamples-2] */
    real_sum += (*pSrcA++) * (*pSrcB++);
  1007f8:	ee056a25 	vmla.f32	s12, s10, s11
    /* CImag = A[1]* B[1] + A[3]* B[3] + A[5]* B[5] + .....+ A[numSamples-1]* B[numSamples-1] */
    imag_sum += (*pSrcA++) * (*pSrcB++);
  1007fc:	ee476a27 	vmla.f32	s13, s14, s15

  blkCnt = numSamples & 3u;

  /* If the blockSize is not a multiple of 4, compute any remaining output samples here.     
   ** No intrinsics is used. */
  while(blkCnt > 0)
  100800:	1afffff5 	bne	1007dc <arm_cmplx_dot_prod_f32+0x2f0>
    /* Decrement the loop counter */
    blkCnt--;
  }

  /* Store the real and imaginary results in the destination buffers */
  *realResult = real_sum;
  100804:	e59d2014 	ldr	r2, [sp, #20]
  *imagResult = imag_sum;
  100808:	e59d3050 	ldr	r3, [sp, #80]	; 0x50
    /* Decrement the loop counter */
    blkCnt--;
  }

  /* Store the real and imaginary results in the destination buffers */
  *realResult = real_sum;
  10080c:	ed826a00 	vstr	s12, [r2]
  *imagResult = imag_sum;
  100810:	edc36a00 	vstr	s13, [r3]
}
  100814:	e28dd030 	add	sp, sp, #48	; 0x30
  100818:	e8bd0ff0 	pop	{r4, r5, r6, r7, r8, r9, sl, fp}
  10081c:	e12fff1e 	bx	lr
 * @param  *realResult real part of the result returned here     
 * @param  *imagResult imaginary part of the result returned here     
 * @return none.     
 */

void arm_cmplx_dot_prod_f32(
  100820:	e1a03004 	mov	r3, r4
  100824:	eaffffec 	b	1007dc <arm_cmplx_dot_prod_f32+0x2f0>
  100828:	00000000 	.word	0x00000000

0010082c <arm_cmplx_dot_prod_f322>:
   float32_t * pSrcA,
   float32_t * pSrcB,
   uint32_t numSamples,
   float32_t * realResult,
   float32_t * imagResult)
 {
  10082c:	e92d0ff0 	push	{r4, r5, r6, r7, r8, r9, sl, fp}
  100830:	e24dd030 	sub	sp, sp, #48	; 0x30
  100834:	e58d200c 	str	r2, [sp, #12]
   acc3 = vdupq_n_f32(0.0f);
   acc4 = vdupq_n_f32(0.0f);
 
   /* First part of the processing with instrinsics.  Compute 16 outputs at a time. 	
	** second and third loop below computes remaining 1 to 15 samples. */
   while(blkCnt > 0)
  100838:	e1b02222 	lsrs	r2, r2, #4
   float32_t * pSrcA,
   float32_t * pSrcB,
   uint32_t numSamples,
   float32_t * realResult,
   float32_t * imagResult)
 {
  10083c:	e1a0b000 	mov	fp, r0
}

__extension__ static __inline float32x4_t __attribute__ ((__always_inline__))
vdupq_n_f32 (float32_t __a)
{
  return (float32x4_t)__builtin_neon_vdup_nv4sf ((__builtin_neon_sf) __a);
  100840:	f2c00050 	vmov.i32	q8, #0	; 0x00000000
  100844:	e1a05001 	mov	r5, r1
   acc3 = vdupq_n_f32(0.0f);
   acc4 = vdupq_n_f32(0.0f);
 
   /* First part of the processing with instrinsics.  Compute 16 outputs at a time. 	
	** second and third loop below computes remaining 1 to 15 samples. */
   while(blkCnt > 0)
  100848:	e58d2010 	str	r2, [sp, #16]
   float32_t * pSrcA,
   float32_t * pSrcB,
   uint32_t numSamples,
   float32_t * realResult,
   float32_t * imagResult)
 {
  10084c:	e58d3014 	str	r3, [sp, #20]
  100850:	f26061f0 	vorr	q11, q8, q8
  100854:	f26041f0 	vorr	q10, q8, q8
  100858:	f26021f0 	vorr	q9, q8, q8
   acc3 = vdupq_n_f32(0.0f);
   acc4 = vdupq_n_f32(0.0f);
 
   /* First part of the processing with instrinsics.  Compute 16 outputs at a time. 	
	** second and third loop below computes remaining 1 to 15 samples. */
   while(blkCnt > 0)
  10085c:	0a000038 	beq	100944 <arm_cmplx_dot_prod_f322+0x118>
  100860:	e58d2008 	str	r2, [sp, #8]
  100864:	e1a03001 	mov	r3, r1
  100868:	e1a02000 	mov	r2, r0
  10086c:	e58d0018 	str	r0, [sp, #24]
  100870:	e58d101c 	str	r1, [sp, #28]
}

__extension__ static __inline float32x4_t __attribute__ ((__always_inline__))
vld1q_f32 (const float32_t * __a)
{
  return (float32x4_t)__builtin_neon_vld1v4sf ((const __builtin_neon_sf *) __a);
  100874:	e1a0c002 	mov	ip, r2
  100878:	e1a01003 	mov	r1, r3
  10087c:	e2820020 	add	r0, r2, #32
  100880:	e2839020 	add	r9, r3, #32
  100884:	f46caa8d 	vld1.32	{d26-d27}, [ip]!
  100888:	e282b030 	add	fp, r2, #48	; 0x30
  10088c:	e283a030 	add	sl, r3, #48	; 0x30
  100890:	e59d7008 	ldr	r7, [sp, #8]
  100894:	f4618a8d 	vld1.32	{d24-d25}, [r1]!
  100898:	e2824050 	add	r4, r2, #80	; 0x50
}

__extension__ static __inline float32x4_t __attribute__ ((__always_inline__))
vmlaq_f32 (float32x4_t __a, float32x4_t __b, float32x4_t __c)
{
  return (float32x4_t)__builtin_neon_vmlav4sf (__a, __b, __c, 3);
  10089c:	f24a0df8 	vmla.f32	q8, q13, q12
}

__extension__ static __inline float32x4_t __attribute__ ((__always_inline__))
vld1q_f32 (const float32_t * __a)
{
  return (float32x4_t)__builtin_neon_vld1v4sf ((const __builtin_neon_sf *) __a);
  1008a0:	e2828040 	add	r8, r2, #64	; 0x40
  1008a4:	f46cea8f 	vld1.32	{d30-d31}, [ip]
  1008a8:	e2577001 	subs	r7, r7, #1
  1008ac:	e58d4004 	str	r4, [sp, #4]
  1008b0:	e2835040 	add	r5, r3, #64	; 0x40
  1008b4:	f4618a8f 	vld1.32	{d24-d25}, [r1]
  1008b8:	e2834050 	add	r4, r3, #80	; 0x50
}

__extension__ static __inline float32x4_t __attribute__ ((__always_inline__))
vmlaq_f32 (float32x4_t __a, float32x4_t __b, float32x4_t __c)
{
  return (float32x4_t)__builtin_neon_vmlav4sf (__a, __b, __c, 3);
  1008bc:	f24e6df8 	vmla.f32	q11, q15, q12
}

__extension__ static __inline float32x4_t __attribute__ ((__always_inline__))
vld1q_f32 (const float32_t * __a)
{
  return (float32x4_t)__builtin_neon_vld1v4sf ((const __builtin_neon_sf *) __a);
  1008c0:	e283c060 	add	ip, r3, #96	; 0x60
  1008c4:	f460ca8f 	vld1.32	{d28-d29}, [r0]
  1008c8:	e2821060 	add	r1, r2, #96	; 0x60
  1008cc:	e58d7008 	str	r7, [sp, #8]
  1008d0:	e2826070 	add	r6, r2, #112	; 0x70
  1008d4:	f4698a8f 	vld1.32	{d24-d25}, [r9]
  1008d8:	e2830070 	add	r0, r3, #112	; 0x70
}

__extension__ static __inline float32x4_t __attribute__ ((__always_inline__))
vmlaq_f32 (float32x4_t __a, float32x4_t __b, float32x4_t __c)
{
  return (float32x4_t)__builtin_neon_vmlav4sf (__a, __b, __c, 3);
  1008dc:	f24c4df8 	vmla.f32	q10, q14, q12
}

__extension__ static __inline float32x4_t __attribute__ ((__always_inline__))
vld1q_f32 (const float32_t * __a)
{
  return (float32x4_t)__builtin_neon_vld1v4sf ((const __builtin_neon_sf *) __a);
  1008e0:	e2822080 	add	r2, r2, #128	; 0x80
  1008e4:	f46baa8f 	vld1.32	{d26-d27}, [fp]
  1008e8:	e2833080 	add	r3, r3, #128	; 0x80
  1008ec:	e59d7004 	ldr	r7, [sp, #4]
  1008f0:	f46a8a8f 	vld1.32	{d24-d25}, [sl]
}

__extension__ static __inline float32x4_t __attribute__ ((__always_inline__))
vmlaq_f32 (float32x4_t __a, float32x4_t __b, float32x4_t __c)
{
  return (float32x4_t)__builtin_neon_vmlav4sf (__a, __b, __c, 3);
  1008f4:	f24a2df8 	vmla.f32	q9, q13, q12
}

__extension__ static __inline float32x4_t __attribute__ ((__always_inline__))
vld1q_f32 (const float32_t * __a)
{
  return (float32x4_t)__builtin_neon_vld1v4sf ((const __builtin_neon_sf *) __a);
  1008f8:	f4286a8f 	vld1.32	{d6-d7}, [r8]
  1008fc:	f4658a8f 	vld1.32	{d24-d25}, [r5]
}

__extension__ static __inline float32x4_t __attribute__ ((__always_inline__))
vmlaq_f32 (float32x4_t __a, float32x4_t __b, float32x4_t __c)
{
  return (float32x4_t)__builtin_neon_vmlav4sf (__a, __b, __c, 3);
  100900:	f2460d78 	vmla.f32	q8, q3, q12
}

__extension__ static __inline float32x4_t __attribute__ ((__always_inline__))
vld1q_f32 (const float32_t * __a)
{
  return (float32x4_t)__builtin_neon_vld1v4sf ((const __builtin_neon_sf *) __a);
  100904:	f467ea8f 	vld1.32	{d30-d31}, [r7]
  100908:	f4648a8f 	vld1.32	{d24-d25}, [r4]
}

__extension__ static __inline float32x4_t __attribute__ ((__always_inline__))
vmlaq_f32 (float32x4_t __a, float32x4_t __b, float32x4_t __c)
{
  return (float32x4_t)__builtin_neon_vmlav4sf (__a, __b, __c, 3);
  10090c:	f24e6df8 	vmla.f32	q11, q15, q12
}

__extension__ static __inline float32x4_t __attribute__ ((__always_inline__))
vld1q_f32 (const float32_t * __a)
{
  return (float32x4_t)__builtin_neon_vld1v4sf ((const __builtin_neon_sf *) __a);
  100910:	f461ca8f 	vld1.32	{d28-d29}, [r1]
  100914:	f46c8a8f 	vld1.32	{d24-d25}, [ip]
}

__extension__ static __inline float32x4_t __attribute__ ((__always_inline__))
vmlaq_f32 (float32x4_t __a, float32x4_t __b, float32x4_t __c)
{
  return (float32x4_t)__builtin_neon_vmlav4sf (__a, __b, __c, 3);
  100918:	f24c4df8 	vmla.f32	q10, q14, q12
}

__extension__ static __inline float32x4_t __attribute__ ((__always_inline__))
vld1q_f32 (const float32_t * __a)
{
  return (float32x4_t)__builtin_neon_vld1v4sf ((const __builtin_neon_sf *) __a);
  10091c:	f466aa8f 	vld1.32	{d26-d27}, [r6]
  100920:	f4608a8f 	vld1.32	{d24-d25}, [r0]
}

__extension__ static __inline float32x4_t __attribute__ ((__always_inline__))
vmlaq_f32 (float32x4_t __a, float32x4_t __b, float32x4_t __c)
{
  return (float32x4_t)__builtin_neon_vmlav4sf (__a, __b, __c, 3);
  100924:	f24a2df8 	vmla.f32	q9, q13, q12
  100928:	1affffd1 	bne	100874 <arm_cmplx_dot_prod_f322+0x48>
  * @param	*realResult real part of the result returned here	  
  * @param	*imagResult imaginary part of the result returned here	   
  * @return none.	  
  */
 
 void arm_cmplx_dot_prod_f322(
  10092c:	e59d2010 	ldr	r2, [sp, #16]
  100930:	e59db018 	ldr	fp, [sp, #24]
  100934:	e59d501c 	ldr	r5, [sp, #28]
  100938:	e1a03382 	lsl	r3, r2, #7
  10093c:	e08bb003 	add	fp, fp, r3
  100940:	e0855003 	add	r5, r5, r3
	 /* Decrement the loop counter */
	 blkCnt--;
   }
 
   blkCnt = numSamples & 15u;
   blkCnt = blkCnt >> 2u;
  100944:	e59d600c 	ldr	r6, [sp, #12]
}

__extension__ static __inline float32x4_t __attribute__ ((__always_inline__))
vaddq_f32 (float32x4_t __a, float32x4_t __b)
{
  return (float32x4_t)__builtin_neon_vaddv4sf (__a, __b, 3);
  100948:	f2400de6 	vadd.f32	q8, q8, q11
  10094c:	f2442de2 	vadd.f32	q9, q10, q9
  100950:	e7e14156 	ubfx	r4, r6, #2, #2
 
   /* If the blockSize is not a multiple of 16, compute remaining output samples.	  
	** Compute multiple of 4 samples at a time in second loop.	
	** and remaining 1 to 3 samples in third loop. */
 
   while(blkCnt > 0)
  100954:	e3540000 	cmp	r4, #0
  100958:	0a000011 	beq	1009a4 <arm_cmplx_dot_prod_f322+0x178>
  10095c:	e1a0c004 	mov	ip, r4
  100960:	e1a00005 	mov	r0, r5
  100964:	e1a0100b 	mov	r1, fp
}

__extension__ static __inline float32x4_t __attribute__ ((__always_inline__))
vld1q_f32 (const float32_t * __a)
{
  return (float32x4_t)__builtin_neon_vld1v4sf ((const __builtin_neon_sf *) __a);
  100968:	e1a02001 	mov	r2, r1
  10096c:	e1a03000 	mov	r3, r0
  100970:	e25cc001 	subs	ip, ip, #1
  * @param	*realResult real part of the result returned here	  
  * @param	*imagResult imaginary part of the result returned here	   
  * @return none.	  
  */
 
 void arm_cmplx_dot_prod_f322(
  100974:	e2811020 	add	r1, r1, #32
  100978:	f4626a8d 	vld1.32	{d22-d23}, [r2]!
  10097c:	e2800020 	add	r0, r0, #32
  100980:	f4634a8d 	vld1.32	{d20-d21}, [r3]!
}

__extension__ static __inline float32x4_t __attribute__ ((__always_inline__))
vmlaq_f32 (float32x4_t __a, float32x4_t __b, float32x4_t __c)
{
  return (float32x4_t)__builtin_neon_vmlav4sf (__a, __b, __c, 3);
  100984:	f2460df4 	vmla.f32	q8, q11, q10
}

__extension__ static __inline float32x4_t __attribute__ ((__always_inline__))
vld1q_f32 (const float32_t * __a)
{
  return (float32x4_t)__builtin_neon_vld1v4sf ((const __builtin_neon_sf *) __a);
  100988:	f4626a8f 	vld1.32	{d22-d23}, [r2]
  10098c:	f4634a8f 	vld1.32	{d20-d21}, [r3]
}

__extension__ static __inline float32x4_t __attribute__ ((__always_inline__))
vmlaq_f32 (float32x4_t __a, float32x4_t __b, float32x4_t __c)
{
  return (float32x4_t)__builtin_neon_vmlav4sf (__a, __b, __c, 3);
  100990:	f2462df4 	vmla.f32	q9, q11, q10
 
   /* If the blockSize is not a multiple of 16, compute remaining output samples.	  
	** Compute multiple of 4 samples at a time in second loop.	
	** and remaining 1 to 3 samples in third loop. */
 
   while(blkCnt > 0)
  100994:	1afffff3 	bne	100968 <arm_cmplx_dot_prod_f322+0x13c>
  * @param	*realResult real part of the result returned here	  
  * @param	*imagResult imaginary part of the result returned here	   
  * @return none.	  
  */
 
 void arm_cmplx_dot_prod_f322(
  100998:	e1a04284 	lsl	r4, r4, #5
  10099c:	e08bb004 	add	fp, fp, r4
  1009a0:	e0855004 	add	r5, r5, r4
}

__extension__ static __inline float32x4_t __attribute__ ((__always_inline__))
vaddq_f32 (float32x4_t __a, float32x4_t __b)
{
  return (float32x4_t)__builtin_neon_vaddv4sf (__a, __b, 3);
  1009a4:	f2402de2 	vadd.f32	q9, q8, q9
 
   blkCnt = numSamples & 3u;
 
   /* If the blockSize is not a multiple of 4, compute any remaining output samples here.	  
	** No intrinsics is used. */
   while(blkCnt > 0)
  1009a8:	e59d700c 	ldr	r7, [sp, #12]
  1009ac:	e2174003 	ands	r4, r7, #3
}

__extension__ static __inline float32_t __attribute__ ((__always_inline__))
vgetq_lane_f32 (float32x4_t __a, const int __b)
{
  return (float32_t)__builtin_neon_vget_lanev4sf (__a, __b, 3);
  1009b0:	ee133b90 	vmov.32	r3, d19[0]
  1009b4:	ee337b90 	vmov.32	r7, d19[1]
  1009b8:	ee122b90 	vmov.32	r2, d18[0]
  1009bc:	ee326b90 	vmov.32	r6, d18[1]
  1009c0:	ee063a10 	vmov	s12, r3
  1009c4:	ee067a90 	vmov	s13, r7
  1009c8:	ee072a10 	vmov	s14, r2
  1009cc:	ee076a90 	vmov	s15, r6
   /* add 2 accumulators */
   acc1 = vaddq_f32(acc1, acc2);
 
   /*  (a+bi)(c+di)  = (a*c-b*d) + (a*d+b*c)i */
   /* add and get real result		VMOV.32 r0, d0[0]	 */
   real_sum = vgetq_lane_f32(acc1, 0) + vgetq_lane_f32(acc1, 2);
  1009d0:	ee366a07 	vadd.f32	s12, s12, s14
 
   /* add and get imaginary result */
   imag_sum = vgetq_lane_f32(acc1, 1) + vgetq_lane_f32(acc1, 3);
  1009d4:	ee766aa7 	vadd.f32	s13, s13, s15
 
   blkCnt = numSamples & 3u;
 
   /* If the blockSize is not a multiple of 4, compute any remaining output samples here.	  
	** No intrinsics is used. */
   while(blkCnt > 0)
  1009d8:	0a000059 	beq	100b44 <arm_cmplx_dot_prod_f322+0x318>
  1009dc:	e1a030a4 	lsr	r3, r4, #1
  * @param	*realResult real part of the result returned here	  
  * @param	*imagResult imaginary part of the result returned here	   
  * @return none.	  
  */
 
 void arm_cmplx_dot_prod_f322(
  1009e0:	e2231001 	eor	r1, r3, #1
  1009e4:	e1a02083 	lsl	r2, r3, #1
  1009e8:	e3540001 	cmp	r4, #1
  1009ec:	93811001 	orrls	r1, r1, #1
  1009f0:	e3510000 	cmp	r1, #0
  1009f4:	1a000019 	bne	100a60 <arm_cmplx_dot_prod_f322+0x234>
	** No intrinsics is used. */
   while(blkCnt > 0)
   {
	 /*  (a+bi)(c+di)  = (a*c-b*d) + (a*d+b*c)i */
	 /* CReal = A[0]* B[0] + A[2]* B[2] + A[4]* B[4] + .....+ A[numSamples-2]* B[numSamples-2] */
	 real_sum += (*pSrcA++) * (*pSrcB++);
  1009f8:	eddf7a5a 	vldr	s15, [pc, #360]	; 100b68 <arm_cmplx_dot_prod_f322+0x33c>
  * @param	*realResult real part of the result returned here	  
  * @param	*imagResult imaginary part of the result returned here	   
  * @return none.	  
  */
 
 void arm_cmplx_dot_prod_f322(
  1009fc:	e1a03203 	lsl	r3, r3, #4
	** No intrinsics is used. */
   while(blkCnt > 0)
   {
	 /*  (a+bi)(c+di)  = (a*c-b*d) + (a*d+b*c)i */
	 /* CReal = A[0]* B[0] + A[2]* B[2] + A[4]* B[4] + .....+ A[numSamples-2]* B[numSamples-2] */
	 real_sum += (*pSrcA++) * (*pSrcB++);
  100a00:	f46b4a8f 	vld1.32	{d20-d21}, [fp]
  100a04:	e1540002 	cmp	r4, r2
  100a08:	e0624004 	rsb	r4, r2, r4
  100a0c:	e08bb003 	add	fp, fp, r3
  100a10:	f4652a8f 	vld1.32	{d18-d19}, [r5]
  100a14:	e0855003 	add	r5, r5, r3
  100a18:	ed8d6a08 	vstr	s12, [sp, #32]
  100a1c:	edcd6a09 	vstr	s13, [sp, #36]	; 0x24
  100a20:	edcd7a0a 	vstr	s15, [sp, #40]	; 0x28
  100a24:	edcd7a0b 	vstr	s15, [sp, #44]	; 0x2c
  100a28:	eddd0b08 	vldr	d16, [sp, #32]
  100a2c:	eddd1b0a 	vldr	d17, [sp, #40]	; 0x28
  100a30:	f2440df2 	vmla.f32	q8, q10, q9
  100a34:	ee112b90 	vmov.32	r2, d17[0]
  100a38:	ee316b90 	vmov.32	r6, d17[1]
  100a3c:	ee103b90 	vmov.32	r3, d16[0]
  100a40:	ee307b90 	vmov.32	r7, d16[1]
  100a44:	ee062a10 	vmov	s12, r2
  100a48:	ee066a90 	vmov	s13, r6
  100a4c:	ee073a10 	vmov	s14, r3
  100a50:	ee077a90 	vmov	s15, r7
  100a54:	ee366a07 	vadd.f32	s12, s12, s14
  100a58:	ee766aa7 	vadd.f32	s13, s13, s15
  100a5c:	0a000038 	beq	100b44 <arm_cmplx_dot_prod_f322+0x318>
  * @param	*realResult real part of the result returned here	  
  * @param	*imagResult imaginary part of the result returned here	   
  * @return none.	  
  */
 
 void arm_cmplx_dot_prod_f322(
  100a60:	e2443001 	sub	r3, r4, #1
  100a64:	e3530003 	cmp	r3, #3
  100a68:	9a00003c 	bls	100b60 <arm_cmplx_dot_prod_f322+0x334>
  100a6c:	e28b2020 	add	r2, fp, #32
  100a70:	e2851020 	add	r1, r5, #32
  100a74:	e28bc01c 	add	ip, fp, #28
  100a78:	e285001c 	add	r0, r5, #28
	** No intrinsics is used. */
   while(blkCnt > 0)
   {
	 /*  (a+bi)(c+di)  = (a*c-b*d) + (a*d+b*c)i */
	 /* CReal = A[0]* B[0] + A[2]* B[2] + A[4]* B[4] + .....+ A[numSamples-2]* B[numSamples-2] */
	 real_sum += (*pSrcA++) * (*pSrcB++);
  100a7c:	ed113a08 	vldr	s6, [r1, #-32]	; 0xffffffe0
  100a80:	f5d2f060 	pld	[r2, #96]	; 0x60
  100a84:	ed127a08 	vldr	s14, [r2, #-32]	; 0xffffffe0
  * @param	*realResult real part of the result returned here	  
  * @param	*imagResult imaginary part of the result returned here	   
  * @return none.	  
  */
 
 void arm_cmplx_dot_prod_f322(
  100a88:	e1a0b002 	mov	fp, r2
   {
	 /*  (a+bi)(c+di)  = (a*c-b*d) + (a*d+b*c)i */
	 /* CReal = A[0]* B[0] + A[2]* B[2] + A[4]* B[4] + .....+ A[numSamples-2]* B[numSamples-2] */
	 real_sum += (*pSrcA++) * (*pSrcB++);
	 /* CImag = A[1]* B[1] + A[3]* B[3] + A[5]* B[5] + .....+ A[numSamples-1]* B[numSamples-1] */
	 imag_sum += (*pSrcA++) * (*pSrcB++);
  100a8c:	ed503a06 	vldr	s7, [r0, #-24]	; 0xffffffe8
  * @param	*realResult real part of the result returned here	  
  * @param	*imagResult imaginary part of the result returned here	   
  * @return none.	  
  */
 
 void arm_cmplx_dot_prod_f322(
  100a90:	e1a05001 	mov	r5, r1
   {
	 /*  (a+bi)(c+di)  = (a*c-b*d) + (a*d+b*c)i */
	 /* CReal = A[0]* B[0] + A[2]* B[2] + A[4]* B[4] + .....+ A[numSamples-2]* B[numSamples-2] */
	 real_sum += (*pSrcA++) * (*pSrcB++);
	 /* CImag = A[1]* B[1] + A[3]* B[3] + A[5]* B[5] + .....+ A[numSamples-1]* B[numSamples-1] */
	 imag_sum += (*pSrcA++) * (*pSrcB++);
  100a94:	ed5c7a06 	vldr	s15, [ip, #-24]	; 0xffffffe8
  100a98:	e2822020 	add	r2, r2, #32
	** No intrinsics is used. */
   while(blkCnt > 0)
   {
	 /*  (a+bi)(c+di)  = (a*c-b*d) + (a*d+b*c)i */
	 /* CReal = A[0]* B[0] + A[2]* B[2] + A[4]* B[4] + .....+ A[numSamples-2]* B[numSamples-2] */
	 real_sum += (*pSrcA++) * (*pSrcB++);
  100a9c:	ed114a06 	vldr	s8, [r1, #-24]	; 0xffffffe8
  100aa0:	e2811020 	add	r1, r1, #32
  100aa4:	ed524a0e 	vldr	s9, [r2, #-56]	; 0xffffffc8
	 /* CImag = A[1]* B[1] + A[3]* B[3] + A[5]* B[5] + .....+ A[numSamples-1]* B[numSamples-1] */
	 imag_sum += (*pSrcA++) * (*pSrcB++);
  100aa8:	e1a06000 	mov	r6, r0
  100aac:	ed105a04 	vldr	s10, [r0, #-16]
  100ab0:	e1a0700c 	mov	r7, ip
  100ab4:	ed5c5a04 	vldr	s11, [ip, #-16]
  100ab8:	e2443005 	sub	r3, r4, #5
	** No intrinsics is used. */
   while(blkCnt > 0)
   {
	 /*  (a+bi)(c+di)  = (a*c-b*d) + (a*d+b*c)i */
	 /* CReal = A[0]* B[0] + A[2]* B[2] + A[4]* B[4] + .....+ A[numSamples-2]* B[numSamples-2] */
	 real_sum += (*pSrcA++) * (*pSrcB++);
  100abc:	ee237a07 	vmul.f32	s14, s6, s14
  100ac0:	e3530003 	cmp	r3, #3
	 /* CImag = A[1]* B[1] + A[3]* B[3] + A[5]* B[5] + .....+ A[numSamples-1]* B[numSamples-1] */
	 imag_sum += (*pSrcA++) * (*pSrcB++);
  100ac4:	ee637aa7 	vmul.f32	s15, s7, s15
 
	 /* Decrement the loop counter */
	 blkCnt--;
  100ac8:	e2443004 	sub	r3, r4, #4
	** No intrinsics is used. */
   while(blkCnt > 0)
   {
	 /*  (a+bi)(c+di)  = (a*c-b*d) + (a*d+b*c)i */
	 /* CReal = A[0]* B[0] + A[2]* B[2] + A[4]* B[4] + .....+ A[numSamples-2]* B[numSamples-2] */
	 real_sum += (*pSrcA++) * (*pSrcB++);
  100acc:	ed113a0c 	vldr	s6, [r1, #-48]	; 0xffffffd0
	 /* CImag = A[1]* B[1] + A[3]* B[3] + A[5]* B[5] + .....+ A[numSamples-1]* B[numSamples-1] */
	 imag_sum += (*pSrcA++) * (*pSrcB++);
 
	 /* Decrement the loop counter */
	 blkCnt--;
  100ad0:	e1a04003 	mov	r4, r3
	** No intrinsics is used. */
   while(blkCnt > 0)
   {
	 /*  (a+bi)(c+di)  = (a*c-b*d) + (a*d+b*c)i */
	 /* CReal = A[0]* B[0] + A[2]* B[2] + A[4]* B[4] + .....+ A[numSamples-2]* B[numSamples-2] */
	 real_sum += (*pSrcA++) * (*pSrcB++);
  100ad4:	ed523a0c 	vldr	s7, [r2, #-48]	; 0xffffffd0
	 /* CImag = A[1]* B[1] + A[3]* B[3] + A[5]* B[5] + .....+ A[numSamples-1]* B[numSamples-1] */
	 imag_sum += (*pSrcA++) * (*pSrcB++);
  100ad8:	e2800020 	add	r0, r0, #32
	** No intrinsics is used. */
   while(blkCnt > 0)
   {
	 /*  (a+bi)(c+di)  = (a*c-b*d) + (a*d+b*c)i */
	 /* CReal = A[0]* B[0] + A[2]* B[2] + A[4]* B[4] + .....+ A[numSamples-2]* B[numSamples-2] */
	 real_sum += (*pSrcA++) * (*pSrcB++);
  100adc:	ee047a24 	vmla.f32	s14, s8, s9
	 /* CImag = A[1]* B[1] + A[3]* B[3] + A[5]* B[5] + .....+ A[numSamples-1]* B[numSamples-1] */
	 imag_sum += (*pSrcA++) * (*pSrcB++);
  100ae0:	e28cc020 	add	ip, ip, #32
  100ae4:	ee457a25 	vmla.f32	s15, s10, s11
  100ae8:	ed105a0a 	vldr	s10, [r0, #-40]	; 0xffffffd8
  100aec:	ed5c5a0a 	vldr	s11, [ip, #-40]	; 0xffffffd8
	** No intrinsics is used. */
   while(blkCnt > 0)
   {
	 /*  (a+bi)(c+di)  = (a*c-b*d) + (a*d+b*c)i */
	 /* CReal = A[0]* B[0] + A[2]* B[2] + A[4]* B[4] + .....+ A[numSamples-2]* B[numSamples-2] */
	 real_sum += (*pSrcA++) * (*pSrcB++);
  100af0:	ed114a0a 	vldr	s8, [r1, #-40]	; 0xffffffd8
  100af4:	ed524a0a 	vldr	s9, [r2, #-40]	; 0xffffffd8
  100af8:	ee037a23 	vmla.f32	s14, s6, s7
	 /* CImag = A[1]* B[1] + A[3]* B[3] + A[5]* B[5] + .....+ A[numSamples-1]* B[numSamples-1] */
	 imag_sum += (*pSrcA++) * (*pSrcB++);
  100afc:	ee457a25 	vmla.f32	s15, s10, s11
  100b00:	ed965a00 	vldr	s10, [r6]
  100b04:	edd75a00 	vldr	s11, [r7]
	** No intrinsics is used. */
   while(blkCnt > 0)
   {
	 /*  (a+bi)(c+di)  = (a*c-b*d) + (a*d+b*c)i */
	 /* CReal = A[0]* B[0] + A[2]* B[2] + A[4]* B[4] + .....+ A[numSamples-2]* B[numSamples-2] */
	 real_sum += (*pSrcA++) * (*pSrcB++);
  100b08:	ee047a24 	vmla.f32	s14, s8, s9
	 /* CImag = A[1]* B[1] + A[3]* B[3] + A[5]* B[5] + .....+ A[numSamples-1]* B[numSamples-1] */
	 imag_sum += (*pSrcA++) * (*pSrcB++);
  100b0c:	ee457a25 	vmla.f32	s15, s10, s11
	** No intrinsics is used. */
   while(blkCnt > 0)
   {
	 /*  (a+bi)(c+di)  = (a*c-b*d) + (a*d+b*c)i */
	 /* CReal = A[0]* B[0] + A[2]* B[2] + A[4]* B[4] + .....+ A[numSamples-2]* B[numSamples-2] */
	 real_sum += (*pSrcA++) * (*pSrcB++);
  100b10:	ee366a07 	vadd.f32	s12, s12, s14
	 /* CImag = A[1]* B[1] + A[3]* B[3] + A[5]* B[5] + .....+ A[numSamples-1]* B[numSamples-1] */
	 imag_sum += (*pSrcA++) * (*pSrcB++);
  100b14:	ee766aa7 	vadd.f32	s13, s13, s15
  100b18:	8affffd7 	bhi	100a7c <arm_cmplx_dot_prod_f322+0x250>
	** No intrinsics is used. */
   while(blkCnt > 0)
   {
	 /*  (a+bi)(c+di)  = (a*c-b*d) + (a*d+b*c)i */
	 /* CReal = A[0]* B[0] + A[2]* B[2] + A[4]* B[4] + .....+ A[numSamples-2]* B[numSamples-2] */
	 real_sum += (*pSrcA++) * (*pSrcB++);
  100b1c:	ed9b5a00 	vldr	s10, [fp]
  * @param	*realResult real part of the result returned here	  
  * @param	*imagResult imaginary part of the result returned here	   
  * @return none.	  
  */
 
 void arm_cmplx_dot_prod_f322(
  100b20:	e28bb008 	add	fp, fp, #8
	** No intrinsics is used. */
   while(blkCnt > 0)
   {
	 /*  (a+bi)(c+di)  = (a*c-b*d) + (a*d+b*c)i */
	 /* CReal = A[0]* B[0] + A[2]* B[2] + A[4]* B[4] + .....+ A[numSamples-2]* B[numSamples-2] */
	 real_sum += (*pSrcA++) * (*pSrcB++);
  100b24:	edd55a00 	vldr	s11, [r5]
 
   blkCnt = numSamples & 3u;
 
   /* If the blockSize is not a multiple of 4, compute any remaining output samples here.	  
	** No intrinsics is used. */
   while(blkCnt > 0)
  100b28:	e2533001 	subs	r3, r3, #1
   {
	 /*  (a+bi)(c+di)  = (a*c-b*d) + (a*d+b*c)i */
	 /* CReal = A[0]* B[0] + A[2]* B[2] + A[4]* B[4] + .....+ A[numSamples-2]* B[numSamples-2] */
	 real_sum += (*pSrcA++) * (*pSrcB++);
	 /* CImag = A[1]* B[1] + A[3]* B[3] + A[5]* B[5] + .....+ A[numSamples-1]* B[numSamples-1] */
	 imag_sum += (*pSrcA++) * (*pSrcB++);
  100b2c:	ed957a01 	vldr	s14, [r5, #4]
  * @param	*realResult real part of the result returned here	  
  * @param	*imagResult imaginary part of the result returned here	   
  * @return none.	  
  */
 
 void arm_cmplx_dot_prod_f322(
  100b30:	e2855008 	add	r5, r5, #8
   {
	 /*  (a+bi)(c+di)  = (a*c-b*d) + (a*d+b*c)i */
	 /* CReal = A[0]* B[0] + A[2]* B[2] + A[4]* B[4] + .....+ A[numSamples-2]* B[numSamples-2] */
	 real_sum += (*pSrcA++) * (*pSrcB++);
	 /* CImag = A[1]* B[1] + A[3]* B[3] + A[5]* B[5] + .....+ A[numSamples-1]* B[numSamples-1] */
	 imag_sum += (*pSrcA++) * (*pSrcB++);
  100b34:	ed5b7a01 	vldr	s15, [fp, #-4]
	** No intrinsics is used. */
   while(blkCnt > 0)
   {
	 /*  (a+bi)(c+di)  = (a*c-b*d) + (a*d+b*c)i */
	 /* CReal = A[0]* B[0] + A[2]* B[2] + A[4]* B[4] + .....+ A[numSamples-2]* B[numSamples-2] */
	 real_sum += (*pSrcA++) * (*pSrcB++);
  100b38:	ee056a25 	vmla.f32	s12, s10, s11
	 /* CImag = A[1]* B[1] + A[3]* B[3] + A[5]* B[5] + .....+ A[numSamples-1]* B[numSamples-1] */
	 imag_sum += (*pSrcA++) * (*pSrcB++);
  100b3c:	ee476a27 	vmla.f32	s13, s14, s15
 
   blkCnt = numSamples & 3u;
 
   /* If the blockSize is not a multiple of 4, compute any remaining output samples here.	  
	** No intrinsics is used. */
   while(blkCnt > 0)
  100b40:	1afffff5 	bne	100b1c <arm_cmplx_dot_prod_f322+0x2f0>
	 /* Decrement the loop counter */
	 blkCnt--;
   }
 
   /* Store the real and imaginary results in the destination buffers */
   *realResult = real_sum;
  100b44:	e59d2014 	ldr	r2, [sp, #20]
   *imagResult = imag_sum;
  100b48:	e59d3050 	ldr	r3, [sp, #80]	; 0x50
	 /* Decrement the loop counter */
	 blkCnt--;
   }
 
   /* Store the real and imaginary results in the destination buffers */
   *realResult = real_sum;
  100b4c:	ed826a00 	vstr	s12, [r2]
   *imagResult = imag_sum;
  100b50:	edc36a00 	vstr	s13, [r3]
 }
  100b54:	e28dd030 	add	sp, sp, #48	; 0x30
  100b58:	e8bd0ff0 	pop	{r4, r5, r6, r7, r8, r9, sl, fp}
  100b5c:	e12fff1e 	bx	lr
  * @param	*realResult real part of the result returned here	  
  * @param	*imagResult imaginary part of the result returned here	   
  * @return none.	  
  */
 
 void arm_cmplx_dot_prod_f322(
  100b60:	e1a03004 	mov	r3, r4
  100b64:	eaffffec 	b	100b1c <arm_cmplx_dot_prod_f322+0x2f0>
  100b68:	00000000 	.word	0x00000000

00100b6c <test_arm_cmplx_dot_prod_f32>:
** ------------------------------------------------------------------- */   
   
float snr_real, snr_imag;  /* Signal-to-Noise Ratio for real and imaginary outputs */  
  
arm_status test_arm_cmplx_dot_prod_f32( void )   
{   
  100b6c:	e92d45f0 	push	{r4, r5, r6, r7, r8, sl, lr}
  {   
	  /* points to each configuration */  
      config = &CONFIG[i];   
         
      /* Process the data through the Complex Dot Product */   
      arm_cmplx_dot_prod_f32_test_render(config->inputAF32, config->inputBF32,   
  100b70:	e3074d70 	movw	r4, #32112	; 0x7d70
	  		config->blockSize, testOutput_real, testOutput_imag);   
  100b74:	e59f52ec 	ldr	r5, [pc, #748]	; 100e68 <test_arm_cmplx_dot_prod_f32+0x2fc>
  {   
	  /* points to each configuration */  
      config = &CONFIG[i];   
         
      /* Process the data through the Complex Dot Product */   
      arm_cmplx_dot_prod_f32_test_render(config->inputAF32, config->inputBF32,   
  100b78:	e3404011 	movt	r4, #17
	  		config->blockSize, testOutput_real, testOutput_imag);   
   
      /* compare the Real parts of final result with the reference output */   
      snr_real = arm_snr_f32(&config->outputF32_real, &testOutput_real[0], 1);   
  100b7c:	e3086090 	movw	r6, #32912	; 0x8090
** ------------------------------------------------------------------- */   
   
float snr_real, snr_imag;  /* Signal-to-Noise Ratio for real and imaginary outputs */  
  
arm_status test_arm_cmplx_dot_prod_f32( void )   
{   
  100b80:	ed2d8b02 	vpush	{d8}
  100b84:	e24dd00c 	sub	sp, sp, #12
   
      /* compare the Real parts of final result with the reference output */   
      snr_real = arm_snr_f32(&config->outputF32_real, &testOutput_real[0], 1);   
   
	  /* compare the calculated snr withe the threshold value */  
      if (snr_real < SNR_THRESHOLD)   
  100b88:	ed9f8ab5 	vldr	s16, [pc, #724]	; 100e64 <test_arm_cmplx_dot_prod_f32+0x2f8>
 
	/* ----------------------------------------------------------------------   
	** Call the Complex Dot Product process function     
	** ------------------------------------------------------------------- */   
	   
	arm_cmplx_dot_prod_f32(A, B, blockSize, realResult, imagResult);   
  100b8c:	e2453008 	sub	r3, r5, #8
  100b90:	e5940000 	ldr	r0, [r4]
      /* Process the data through the Complex Dot Product */   
      arm_cmplx_dot_prod_f32_test_render(config->inputAF32, config->inputBF32,   
	  		config->blockSize, testOutput_real, testOutput_imag);   
   
      /* compare the Real parts of final result with the reference output */   
      snr_real = arm_snr_f32(&config->outputF32_real, &testOutput_real[0], 1);   
  100b94:	e3406012 	movt	r6, #18
 
	/* ----------------------------------------------------------------------   
	** Call the Complex Dot Product process function     
	** ------------------------------------------------------------------- */   
	   
	arm_cmplx_dot_prod_f32(A, B, blockSize, realResult, imagResult);   
  100b98:	e5941004 	ldr	r1, [r4, #4]
  100b9c:	e5942010 	ldr	r2, [r4, #16]
  100ba0:	e58d5000 	str	r5, [sp]
  100ba4:	ebfffe50 	bl	1004ec <arm_cmplx_dot_prod_f32>
      /* Process the data through the Complex Dot Product */   
      arm_cmplx_dot_prod_f32_test_render(config->inputAF32, config->inputBF32,   
	  		config->blockSize, testOutput_real, testOutput_imag);   
   
      /* compare the Real parts of final result with the reference output */   
      snr_real = arm_snr_f32(&config->outputF32_real, &testOutput_real[0], 1);   
  100ba8:	e2840008 	add	r0, r4, #8
  100bac:	e2451008 	sub	r1, r5, #8
  100bb0:	e3a02001 	mov	r2, #1
  100bb4:	eb00061f 	bl	102438 <arm_snr_f32>
  100bb8:	ee070a90 	vmov	s15, r0
   
	  /* compare the calculated snr withe the threshold value */  
      if (snr_real < SNR_THRESHOLD)   
  100bbc:	eef47ac8 	vcmpe.f32	s15, s16
  100bc0:	eef1fa10 	vmrs	APSR_nzcv, fpscr
      /* Process the data through the Complex Dot Product */   
      arm_cmplx_dot_prod_f32_test_render(config->inputAF32, config->inputBF32,   
	  		config->blockSize, testOutput_real, testOutput_imag);   
   
      /* compare the Real parts of final result with the reference output */   
      snr_real = arm_snr_f32(&config->outputF32_real, &testOutput_real[0], 1);   
  100bc4:	e5860000 	str	r0, [r6]
   
	  /* compare the calculated snr withe the threshold value */  
      if (snr_real < SNR_THRESHOLD)   
  100bc8:	4a0000a3 	bmi	100e5c <test_arm_cmplx_dot_prod_f32+0x2f0>
		   return the status as ARM_MATH_TEST_FAILURE */  
	  	return(ARM_MATH_TEST_FAILURE); 			   
	  }   
  
	  /* compare the Imaginary parts of final result with the reference output */  
	  snr_imag = arm_snr_f32(&config->outputF32_imag, &testOutput_imag[0], 1);   
  100bcc:	e284000c 	add	r0, r4, #12
  100bd0:	e1a01005 	mov	r1, r5
  100bd4:	e3a02001 	mov	r2, #1
  100bd8:	e308708c 	movw	r7, #32908	; 0x808c
  100bdc:	eb000615 	bl	102438 <arm_snr_f32>
  100be0:	ee070a90 	vmov	s15, r0
  100be4:	e3407012 	movt	r7, #18
   
	  /* compare the calculated snr withe the threshold value */  
      if (snr_imag < SNR_THRESHOLD)   
  100be8:	eef47ac8 	vcmpe.f32	s15, s16
  100bec:	eef1fa10 	vmrs	APSR_nzcv, fpscr
		   return the status as ARM_MATH_TEST_FAILURE */  
	  	return(ARM_MATH_TEST_FAILURE); 			   
	  }   
  
	  /* compare the Imaginary parts of final result with the reference output */  
	  snr_imag = arm_snr_f32(&config->outputF32_imag, &testOutput_imag[0], 1);   
  100bf0:	e5870000 	str	r0, [r7]
   
	  /* compare the calculated snr withe the threshold value */  
      if (snr_imag < SNR_THRESHOLD)   
  100bf4:	4a000098 	bmi	100e5c <test_arm_cmplx_dot_prod_f32+0x2f0>
 
	/* ----------------------------------------------------------------------   
	** Call the Complex Dot Product process function     
	** ------------------------------------------------------------------- */   
	   
	arm_cmplx_dot_prod_f32(A, B, blockSize, realResult, imagResult);   
  100bf8:	e5940014 	ldr	r0, [r4, #20]
  100bfc:	e2453008 	sub	r3, r5, #8
  100c00:	e5941018 	ldr	r1, [r4, #24]
  100c04:	e5942024 	ldr	r2, [r4, #36]	; 0x24
  100c08:	e58d5000 	str	r5, [sp]
  100c0c:	ebfffe36 	bl	1004ec <arm_cmplx_dot_prod_f32>
      /* Process the data through the Complex Dot Product */   
      arm_cmplx_dot_prod_f32_test_render(config->inputAF32, config->inputBF32,   
	  		config->blockSize, testOutput_real, testOutput_imag);   
   
      /* compare the Real parts of final result with the reference output */   
      snr_real = arm_snr_f32(&config->outputF32_real, &testOutput_real[0], 1);   
  100c10:	e284001c 	add	r0, r4, #28
  100c14:	e2451008 	sub	r1, r5, #8
  100c18:	e3a02001 	mov	r2, #1
  100c1c:	eb000605 	bl	102438 <arm_snr_f32>
  100c20:	ee070a90 	vmov	s15, r0
   
	  /* compare the calculated snr withe the threshold value */  
      if (snr_real < SNR_THRESHOLD)   
  100c24:	eef47ac8 	vcmpe.f32	s15, s16
  100c28:	eef1fa10 	vmrs	APSR_nzcv, fpscr
      /* Process the data through the Complex Dot Product */   
      arm_cmplx_dot_prod_f32_test_render(config->inputAF32, config->inputBF32,   
	  		config->blockSize, testOutput_real, testOutput_imag);   
   
      /* compare the Real parts of final result with the reference output */   
      snr_real = arm_snr_f32(&config->outputF32_real, &testOutput_real[0], 1);   
  100c2c:	e5860000 	str	r0, [r6]
   
	  /* compare the calculated snr withe the threshold value */  
      if (snr_real < SNR_THRESHOLD)   
  100c30:	4a000089 	bmi	100e5c <test_arm_cmplx_dot_prod_f32+0x2f0>
		   return the status as ARM_MATH_TEST_FAILURE */  
	  	return(ARM_MATH_TEST_FAILURE); 			   
	  }   
  
	  /* compare the Imaginary parts of final result with the reference output */  
	  snr_imag = arm_snr_f32(&config->outputF32_imag, &testOutput_imag[0], 1);   
  100c34:	e2840020 	add	r0, r4, #32
  100c38:	e1a01005 	mov	r1, r5
  100c3c:	e3a02001 	mov	r2, #1
  100c40:	eb0005fc 	bl	102438 <arm_snr_f32>
  100c44:	ee070a90 	vmov	s15, r0
   
	  /* compare the calculated snr withe the threshold value */  
      if (snr_imag < SNR_THRESHOLD)   
  100c48:	eef47ac8 	vcmpe.f32	s15, s16
  100c4c:	eef1fa10 	vmrs	APSR_nzcv, fpscr
		   return the status as ARM_MATH_TEST_FAILURE */  
	  	return(ARM_MATH_TEST_FAILURE); 			   
	  }   
  
	  /* compare the Imaginary parts of final result with the reference output */  
	  snr_imag = arm_snr_f32(&config->outputF32_imag, &testOutput_imag[0], 1);   
  100c50:	e5870000 	str	r0, [r7]
   
	  /* compare the calculated snr withe the threshold value */  
      if (snr_imag < SNR_THRESHOLD)   
  100c54:	4a000080 	bmi	100e5c <test_arm_cmplx_dot_prod_f32+0x2f0>
 
	/* ----------------------------------------------------------------------   
	** Call the Complex Dot Product process function     
	** ------------------------------------------------------------------- */   
	   
	arm_cmplx_dot_prod_f32(A, B, blockSize, realResult, imagResult);   
  100c58:	e5940028 	ldr	r0, [r4, #40]	; 0x28
  100c5c:	e2453008 	sub	r3, r5, #8
  100c60:	e594102c 	ldr	r1, [r4, #44]	; 0x2c
  100c64:	e5942038 	ldr	r2, [r4, #56]	; 0x38
  100c68:	e58d5000 	str	r5, [sp]
  100c6c:	ebfffe1e 	bl	1004ec <arm_cmplx_dot_prod_f32>
      /* Process the data through the Complex Dot Product */   
      arm_cmplx_dot_prod_f32_test_render(config->inputAF32, config->inputBF32,   
	  		config->blockSize, testOutput_real, testOutput_imag);   
   
      /* compare the Real parts of final result with the reference output */   
      snr_real = arm_snr_f32(&config->outputF32_real, &testOutput_real[0], 1);   
  100c70:	e2840030 	add	r0, r4, #48	; 0x30
  100c74:	e2451008 	sub	r1, r5, #8
  100c78:	e3a02001 	mov	r2, #1
  100c7c:	eb0005ed 	bl	102438 <arm_snr_f32>
  100c80:	ee070a90 	vmov	s15, r0
   
	  /* compare the calculated snr withe the threshold value */  
      if (snr_real < SNR_THRESHOLD)   
  100c84:	eef47ac8 	vcmpe.f32	s15, s16
  100c88:	eef1fa10 	vmrs	APSR_nzcv, fpscr
      /* Process the data through the Complex Dot Product */   
      arm_cmplx_dot_prod_f32_test_render(config->inputAF32, config->inputBF32,   
	  		config->blockSize, testOutput_real, testOutput_imag);   
   
      /* compare the Real parts of final result with the reference output */   
      snr_real = arm_snr_f32(&config->outputF32_real, &testOutput_real[0], 1);   
  100c8c:	e5860000 	str	r0, [r6]
   
	  /* compare the calculated snr withe the threshold value */  
      if (snr_real < SNR_THRESHOLD)   
  100c90:	4a000071 	bmi	100e5c <test_arm_cmplx_dot_prod_f32+0x2f0>
		   return the status as ARM_MATH_TEST_FAILURE */  
	  	return(ARM_MATH_TEST_FAILURE); 			   
	  }   
  
	  /* compare the Imaginary parts of final result with the reference output */  
	  snr_imag = arm_snr_f32(&config->outputF32_imag, &testOutput_imag[0], 1);   
  100c94:	e2840034 	add	r0, r4, #52	; 0x34
  100c98:	e1a01005 	mov	r1, r5
  100c9c:	e3a02001 	mov	r2, #1
  100ca0:	eb0005e4 	bl	102438 <arm_snr_f32>
  100ca4:	ee070a90 	vmov	s15, r0
   
	  /* compare the calculated snr withe the threshold value */  
      if (snr_imag < SNR_THRESHOLD)   
  100ca8:	eef47ac8 	vcmpe.f32	s15, s16
  100cac:	eef1fa10 	vmrs	APSR_nzcv, fpscr
		   return the status as ARM_MATH_TEST_FAILURE */  
	  	return(ARM_MATH_TEST_FAILURE); 			   
	  }   
  
	  /* compare the Imaginary parts of final result with the reference output */  
	  snr_imag = arm_snr_f32(&config->outputF32_imag, &testOutput_imag[0], 1);   
  100cb0:	e5870000 	str	r0, [r7]
   
	  /* compare the calculated snr withe the threshold value */  
      if (snr_imag < SNR_THRESHOLD)   
  100cb4:	4a000068 	bmi	100e5c <test_arm_cmplx_dot_prod_f32+0x2f0>
 
	/* ----------------------------------------------------------------------   
	** Call the Complex Dot Product process function     
	** ------------------------------------------------------------------- */   
	   
	arm_cmplx_dot_prod_f32(A, B, blockSize, realResult, imagResult);   
  100cb8:	e594003c 	ldr	r0, [r4, #60]	; 0x3c
  100cbc:	e2453008 	sub	r3, r5, #8
  100cc0:	e5941040 	ldr	r1, [r4, #64]	; 0x40
  100cc4:	e594204c 	ldr	r2, [r4, #76]	; 0x4c
  100cc8:	e58d5000 	str	r5, [sp]
  100ccc:	ebfffe06 	bl	1004ec <arm_cmplx_dot_prod_f32>
      /* Process the data through the Complex Dot Product */   
      arm_cmplx_dot_prod_f32_test_render(config->inputAF32, config->inputBF32,   
	  		config->blockSize, testOutput_real, testOutput_imag);   
   
      /* compare the Real parts of final result with the reference output */   
      snr_real = arm_snr_f32(&config->outputF32_real, &testOutput_real[0], 1);   
  100cd0:	e2840044 	add	r0, r4, #68	; 0x44
  100cd4:	e2451008 	sub	r1, r5, #8
  100cd8:	e3a02001 	mov	r2, #1
  100cdc:	eb0005d5 	bl	102438 <arm_snr_f32>
  100ce0:	ee070a90 	vmov	s15, r0
   
	  /* compare the calculated snr withe the threshold value */  
      if (snr_real < SNR_THRESHOLD)   
  100ce4:	eef47ac8 	vcmpe.f32	s15, s16
  100ce8:	eef1fa10 	vmrs	APSR_nzcv, fpscr
      /* Process the data through the Complex Dot Product */   
      arm_cmplx_dot_prod_f32_test_render(config->inputAF32, config->inputBF32,   
	  		config->blockSize, testOutput_real, testOutput_imag);   
   
      /* compare the Real parts of final result with the reference output */   
      snr_real = arm_snr_f32(&config->outputF32_real, &testOutput_real[0], 1);   
  100cec:	e5860000 	str	r0, [r6]
   
	  /* compare the calculated snr withe the threshold value */  
      if (snr_real < SNR_THRESHOLD)   
  100cf0:	4a000059 	bmi	100e5c <test_arm_cmplx_dot_prod_f32+0x2f0>
		   return the status as ARM_MATH_TEST_FAILURE */  
	  	return(ARM_MATH_TEST_FAILURE); 			   
	  }   
  
	  /* compare the Imaginary parts of final result with the reference output */  
	  snr_imag = arm_snr_f32(&config->outputF32_imag, &testOutput_imag[0], 1);   
  100cf4:	e2840048 	add	r0, r4, #72	; 0x48
  100cf8:	e1a01005 	mov	r1, r5
  100cfc:	e3a02001 	mov	r2, #1
  100d00:	eb0005cc 	bl	102438 <arm_snr_f32>
  100d04:	ee070a90 	vmov	s15, r0
   
	  /* compare the calculated snr withe the threshold value */  
      if (snr_imag < SNR_THRESHOLD)   
  100d08:	eef47ac8 	vcmpe.f32	s15, s16
  100d0c:	eef1fa10 	vmrs	APSR_nzcv, fpscr
		   return the status as ARM_MATH_TEST_FAILURE */  
	  	return(ARM_MATH_TEST_FAILURE); 			   
	  }   
  
	  /* compare the Imaginary parts of final result with the reference output */  
	  snr_imag = arm_snr_f32(&config->outputF32_imag, &testOutput_imag[0], 1);   
  100d10:	e5870000 	str	r0, [r7]
   
	  /* compare the calculated snr withe the threshold value */  
      if (snr_imag < SNR_THRESHOLD)   
  100d14:	4a000050 	bmi	100e5c <test_arm_cmplx_dot_prod_f32+0x2f0>
 
	/* ----------------------------------------------------------------------   
	** Call the Complex Dot Product process function     
	** ------------------------------------------------------------------- */   
	   
	arm_cmplx_dot_prod_f32(A, B, blockSize, realResult, imagResult);   
  100d18:	e5940050 	ldr	r0, [r4, #80]	; 0x50
  100d1c:	e2453008 	sub	r3, r5, #8
  100d20:	e5941054 	ldr	r1, [r4, #84]	; 0x54
  100d24:	e5942060 	ldr	r2, [r4, #96]	; 0x60
  100d28:	e58d5000 	str	r5, [sp]
  100d2c:	ebfffdee 	bl	1004ec <arm_cmplx_dot_prod_f32>
      /* Process the data through the Complex Dot Product */   
      arm_cmplx_dot_prod_f32_test_render(config->inputAF32, config->inputBF32,   
	  		config->blockSize, testOutput_real, testOutput_imag);   
   
      /* compare the Real parts of final result with the reference output */   
      snr_real = arm_snr_f32(&config->outputF32_real, &testOutput_real[0], 1);   
  100d30:	e2840058 	add	r0, r4, #88	; 0x58
  100d34:	e2451008 	sub	r1, r5, #8
  100d38:	e3a02001 	mov	r2, #1
  100d3c:	eb0005bd 	bl	102438 <arm_snr_f32>
  100d40:	ee070a90 	vmov	s15, r0
   
	  /* compare the calculated snr withe the threshold value */  
      if (snr_real < SNR_THRESHOLD)   
  100d44:	eef47ac8 	vcmpe.f32	s15, s16
  100d48:	eef1fa10 	vmrs	APSR_nzcv, fpscr
      /* Process the data through the Complex Dot Product */   
      arm_cmplx_dot_prod_f32_test_render(config->inputAF32, config->inputBF32,   
	  		config->blockSize, testOutput_real, testOutput_imag);   
   
      /* compare the Real parts of final result with the reference output */   
      snr_real = arm_snr_f32(&config->outputF32_real, &testOutput_real[0], 1);   
  100d4c:	e5860000 	str	r0, [r6]
   
	  /* compare the calculated snr withe the threshold value */  
      if (snr_real < SNR_THRESHOLD)   
  100d50:	4a000041 	bmi	100e5c <test_arm_cmplx_dot_prod_f32+0x2f0>
		   return the status as ARM_MATH_TEST_FAILURE */  
	  	return(ARM_MATH_TEST_FAILURE); 			   
	  }   
  
	  /* compare the Imaginary parts of final result with the reference output */  
	  snr_imag = arm_snr_f32(&config->outputF32_imag, &testOutput_imag[0], 1);   
  100d54:	e284005c 	add	r0, r4, #92	; 0x5c
  100d58:	e1a01005 	mov	r1, r5
  100d5c:	e3a02001 	mov	r2, #1
  100d60:	eb0005b4 	bl	102438 <arm_snr_f32>
  100d64:	ee070a90 	vmov	s15, r0
   
	  /* compare the calculated snr withe the threshold value */  
      if (snr_imag < SNR_THRESHOLD)   
  100d68:	eef47ac8 	vcmpe.f32	s15, s16
  100d6c:	eef1fa10 	vmrs	APSR_nzcv, fpscr
		   return the status as ARM_MATH_TEST_FAILURE */  
	  	return(ARM_MATH_TEST_FAILURE); 			   
	  }   
  
	  /* compare the Imaginary parts of final result with the reference output */  
	  snr_imag = arm_snr_f32(&config->outputF32_imag, &testOutput_imag[0], 1);   
  100d70:	e5870000 	str	r0, [r7]
   
	  /* compare the calculated snr withe the threshold value */  
      if (snr_imag < SNR_THRESHOLD)   
  100d74:	4a000038 	bmi	100e5c <test_arm_cmplx_dot_prod_f32+0x2f0>
 
	/* ----------------------------------------------------------------------   
	** Call the Complex Dot Product process function     
	** ------------------------------------------------------------------- */   
	   
	arm_cmplx_dot_prod_f32(A, B, blockSize, realResult, imagResult);   
  100d78:	e5940064 	ldr	r0, [r4, #100]	; 0x64
  {   
	  /* points to each configuration */  
      config = &CONFIG[i];   
         
      /* Process the data through the Complex Dot Product */   
      arm_cmplx_dot_prod_f32_test_render(config->inputAF32, config->inputBF32,   
  100d7c:	e1a08004 	mov	r8, r4
 
	/* ----------------------------------------------------------------------   
	** Call the Complex Dot Product process function     
	** ------------------------------------------------------------------- */   
	   
	arm_cmplx_dot_prod_f32(A, B, blockSize, realResult, imagResult);   
  100d80:	e5941068 	ldr	r1, [r4, #104]	; 0x68
  100d84:	e2453008 	sub	r3, r5, #8
  100d88:	e5942074 	ldr	r2, [r4, #116]	; 0x74
      /* Process the data through the Complex Dot Product */   
      arm_cmplx_dot_prod_f32_test_render(config->inputAF32, config->inputBF32,   
	  		config->blockSize, testOutput_real, testOutput_imag);   
   
      /* compare the Real parts of final result with the reference output */   
      snr_real = arm_snr_f32(&config->outputF32_real, &testOutput_real[0], 1);   
  100d8c:	e1a0a006 	mov	sl, r6
 
	/* ----------------------------------------------------------------------   
	** Call the Complex Dot Product process function     
	** ------------------------------------------------------------------- */   
	   
	arm_cmplx_dot_prod_f32(A, B, blockSize, realResult, imagResult);   
  100d90:	e58d5000 	str	r5, [sp]
	  /* points to each configuration */  
      config = &CONFIG[i];   
         
      /* Process the data through the Complex Dot Product */   
      arm_cmplx_dot_prod_f32_test_render(config->inputAF32, config->inputBF32,   
	  		config->blockSize, testOutput_real, testOutput_imag);   
  100d94:	e1a04005 	mov	r4, r5
 
	/* ----------------------------------------------------------------------   
	** Call the Complex Dot Product process function     
	** ------------------------------------------------------------------- */   
	   
	arm_cmplx_dot_prod_f32(A, B, blockSize, realResult, imagResult);   
  100d98:	ebfffdd3 	bl	1004ec <arm_cmplx_dot_prod_f32>
      /* Process the data through the Complex Dot Product */   
      arm_cmplx_dot_prod_f32_test_render(config->inputAF32, config->inputBF32,   
	  		config->blockSize, testOutput_real, testOutput_imag);   
   
      /* compare the Real parts of final result with the reference output */   
      snr_real = arm_snr_f32(&config->outputF32_real, &testOutput_real[0], 1);   
  100d9c:	e288006c 	add	r0, r8, #108	; 0x6c
  100da0:	e2451008 	sub	r1, r5, #8
  100da4:	e3a02001 	mov	r2, #1
  100da8:	eb0005a2 	bl	102438 <arm_snr_f32>
  100dac:	ee070a90 	vmov	s15, r0
   
	  /* compare the calculated snr withe the threshold value */  
      if (snr_real < SNR_THRESHOLD)   
  100db0:	eef47ac8 	vcmpe.f32	s15, s16
  100db4:	eef1fa10 	vmrs	APSR_nzcv, fpscr
      /* Process the data through the Complex Dot Product */   
      arm_cmplx_dot_prod_f32_test_render(config->inputAF32, config->inputBF32,   
	  		config->blockSize, testOutput_real, testOutput_imag);   
   
      /* compare the Real parts of final result with the reference output */   
      snr_real = arm_snr_f32(&config->outputF32_real, &testOutput_real[0], 1);   
  100db8:	e5860000 	str	r0, [r6]
   
	  /* compare the calculated snr withe the threshold value */  
      if (snr_real < SNR_THRESHOLD)   
  100dbc:	4a000026 	bmi	100e5c <test_arm_cmplx_dot_prod_f32+0x2f0>
		   return the status as ARM_MATH_TEST_FAILURE */  
	  	return(ARM_MATH_TEST_FAILURE); 			   
	  }   
  
	  /* compare the Imaginary parts of final result with the reference output */  
	  snr_imag = arm_snr_f32(&config->outputF32_imag, &testOutput_imag[0], 1);   
  100dc0:	e1a01005 	mov	r1, r5
  100dc4:	e2880070 	add	r0, r8, #112	; 0x70
  100dc8:	e3a02001 	mov	r2, #1
  100dcc:	e1a05007 	mov	r5, r7
  100dd0:	eb000598 	bl	102438 <arm_snr_f32>
  100dd4:	ee070a90 	vmov	s15, r0
   
	  /* compare the calculated snr withe the threshold value */  
      if (snr_imag < SNR_THRESHOLD)   
  100dd8:	eef47ac8 	vcmpe.f32	s15, s16
  100ddc:	eef1fa10 	vmrs	APSR_nzcv, fpscr
		   return the status as ARM_MATH_TEST_FAILURE */  
	  	return(ARM_MATH_TEST_FAILURE); 			   
	  }   
  
	  /* compare the Imaginary parts of final result with the reference output */  
	  snr_imag = arm_snr_f32(&config->outputF32_imag, &testOutput_imag[0], 1);   
  100de0:	e5870000 	str	r0, [r7]
   
	  /* compare the calculated snr withe the threshold value */  
      if (snr_imag < SNR_THRESHOLD)   
  100de4:	4a00001c 	bmi	100e5c <test_arm_cmplx_dot_prod_f32+0x2f0>
 
	/* ----------------------------------------------------------------------   
	** Call the Complex Dot Product process function     
	** ------------------------------------------------------------------- */   
	   
	arm_cmplx_dot_prod_f32(A, B, blockSize, realResult, imagResult);   
  100de8:	e5980078 	ldr	r0, [r8, #120]	; 0x78
  100dec:	e2443008 	sub	r3, r4, #8
  100df0:	e598107c 	ldr	r1, [r8, #124]	; 0x7c
  100df4:	e5982088 	ldr	r2, [r8, #136]	; 0x88
  100df8:	e58d4000 	str	r4, [sp]
  100dfc:	ebfffdba 	bl	1004ec <arm_cmplx_dot_prod_f32>
      /* Process the data through the Complex Dot Product */   
      arm_cmplx_dot_prod_f32_test_render(config->inputAF32, config->inputBF32,   
	  		config->blockSize, testOutput_real, testOutput_imag);   
   
      /* compare the Real parts of final result with the reference output */   
      snr_real = arm_snr_f32(&config->outputF32_real, &testOutput_real[0], 1);   
  100e00:	e2880080 	add	r0, r8, #128	; 0x80
  100e04:	e2441008 	sub	r1, r4, #8
  100e08:	e3a02001 	mov	r2, #1
  100e0c:	eb000589 	bl	102438 <arm_snr_f32>
  100e10:	ee070a90 	vmov	s15, r0
   
	  /* compare the calculated snr withe the threshold value */  
      if (snr_real < SNR_THRESHOLD)   
  100e14:	eef47ac8 	vcmpe.f32	s15, s16
  100e18:	eef1fa10 	vmrs	APSR_nzcv, fpscr
      /* Process the data through the Complex Dot Product */   
      arm_cmplx_dot_prod_f32_test_render(config->inputAF32, config->inputBF32,   
	  		config->blockSize, testOutput_real, testOutput_imag);   
   
      /* compare the Real parts of final result with the reference output */   
      snr_real = arm_snr_f32(&config->outputF32_real, &testOutput_real[0], 1);   
  100e1c:	e58a0000 	str	r0, [sl]
   
	  /* compare the calculated snr withe the threshold value */  
      if (snr_real < SNR_THRESHOLD)   
  100e20:	4a00000d 	bmi	100e5c <test_arm_cmplx_dot_prod_f32+0x2f0>
		   return the status as ARM_MATH_TEST_FAILURE */  
	  	return(ARM_MATH_TEST_FAILURE); 			   
	  }   
  
	  /* compare the Imaginary parts of final result with the reference output */  
	  snr_imag = arm_snr_f32(&config->outputF32_imag, &testOutput_imag[0], 1);   
  100e24:	e2880084 	add	r0, r8, #132	; 0x84
  100e28:	e1a01004 	mov	r1, r4
  100e2c:	e3a02001 	mov	r2, #1
  100e30:	eb000580 	bl	102438 <arm_snr_f32>
  100e34:	ee070a90 	vmov	s15, r0
   
	  /* compare the calculated snr withe the threshold value */  
      if (snr_imag < SNR_THRESHOLD)   
  100e38:	eef47ac8 	vcmpe.f32	s15, s16
  100e3c:	eef1fa10 	vmrs	APSR_nzcv, fpscr
		   return the status as ARM_MATH_TEST_FAILURE */  
	  	return(ARM_MATH_TEST_FAILURE); 			   
	  }   
  
	  /* compare the Imaginary parts of final result with the reference output */  
	  snr_imag = arm_snr_f32(&config->outputF32_imag, &testOutput_imag[0], 1);   
  100e40:	e5850000 	str	r0, [r5]
   
	  /* compare the calculated snr withe the threshold value */  
      if (snr_imag < SNR_THRESHOLD)   
  100e44:	4a000004 	bmi	100e5c <test_arm_cmplx_dot_prod_f32+0x2f0>
	  	return(ARM_MATH_TEST_FAILURE); 			   
	  }  
   }   
   
   /* All tests passed! */   
   return(ARM_MATH_SUCCESS);   
  100e48:	e3a00000 	mov	r0, #0
}   
  100e4c:	e6af0070 	sxtb	r0, r0
  100e50:	e28dd00c 	add	sp, sp, #12
  100e54:	ecbd8b02 	vpop	{d8}
  100e58:	e8bd85f0 	pop	{r4, r5, r6, r7, r8, sl, pc}
	  /* compare the calculated snr withe the threshold value */  
      if (snr_real < SNR_THRESHOLD)   
	  {   
	    /* If the output is not matched with the refereence output values,   
		   return the status as ARM_MATH_TEST_FAILURE */  
	  	return(ARM_MATH_TEST_FAILURE); 			   
  100e5c:	e3a000fa 	mov	r0, #250	; 0xfa
  100e60:	eafffff9 	b	100e4c <test_arm_cmplx_dot_prod_f32+0x2e0>
  100e64:	42e60000 	.word	0x42e60000
  100e68:	00128040 	.word	0x00128040

00100e6c <arm_cmplx_mult_cmplx_f32>:
void arm_cmplx_mult_cmplx_f32(
  float32_t * pSrcA,
  float32_t * pSrcB,
  float32_t * pDst,
  uint32_t numSamples)
{
  100e6c:	e92d0ff0 	push	{r4, r5, r6, r7, r8, r9, sl, fp}
  100e70:	e1a07000 	mov	r7, r0
  100e74:	ed2d8b10 	vpush	{d8-d15}
  100e78:	e24dd090 	sub	sp, sp, #144	; 0x90
  100e7c:	e1a08001 	mov	r8, r1
  100e80:	e1a0a002 	mov	sl, r2
  100e84:	e58d305c 	str	r3, [sp, #92]	; 0x5c
  uint32_t blkCnt;                               /* loop counters */

  /* Loop over blockSize number of values */
  blkCnt = numSamples >> 4u;

  while(blkCnt > 0u)
  100e88:	e1b03223 	lsrs	r3, r3, #4
  100e8c:	e58d3060 	str	r3, [sp, #96]	; 0x60
  100e90:	0a0000b0 	beq	101158 <arm_cmplx_mult_cmplx_f32+0x2ec>
  100e94:	e1a00001 	mov	r0, r1
  100e98:	e1a0c002 	mov	ip, r2
  100e9c:	e1a01007 	mov	r1, r7
  100ea0:	e28d9070 	add	r9, sp, #112	; 0x70
  100ea4:	e58d3058 	str	r3, [sp, #88]	; 0x58
  100ea8:	e58d7064 	str	r7, [sp, #100]	; 0x64
  100eac:	e58d8068 	str	r8, [sp, #104]	; 0x68
  100eb0:	e58d206c 	str	r2, [sp, #108]	; 0x6c
}

__extension__ static __inline float32x4_t __attribute__ ((__always_inline__))
vld1q_f32 (const float32_t * __a)
{
  return (float32x4_t)__builtin_neon_vld1v4sf ((const __builtin_neon_sf *) __a);
  100eb4:	e1a02001 	mov	r2, r1
  100eb8:	e1a03000 	mov	r3, r0

__extension__ static __inline void __attribute__ ((__always_inline__))
vst2q_f32 (float32_t * __a, float32x4x2_t __b)
{
  union { float32x4x2_t __i; __builtin_neon_oi __o; } __bu = { __b };
  __builtin_neon_vst2v4sf ((__builtin_neon_sf *) __a, __bu.__o);
  100ebc:	e58dc004 	str	ip, [sp, #4]
}

__extension__ static __inline float32x4_t __attribute__ ((__always_inline__))
vld1q_f32 (const float32_t * __a)
{
  return (float32x4_t)__builtin_neon_vld1v4sf ((const __builtin_neon_sf *) __a);
  100ec0:	e281b020 	add	fp, r1, #32
  100ec4:	f4620a8d 	vld1.32	{d16-d17}, [r2]!
  100ec8:	e281a030 	add	sl, r1, #48	; 0x30
  100ecc:	e2804040 	add	r4, r0, #64	; 0x40
  100ed0:	e2808020 	add	r8, r0, #32
  100ed4:	f4632a8d 	vld1.32	{d18-d19}, [r3]!
  100ed8:	e2807030 	add	r7, r0, #48	; 0x30
  100edc:	e2816040 	add	r6, r1, #64	; 0x40
  100ee0:	e2815050 	add	r5, r1, #80	; 0x50
  100ee4:	f4626a8f 	vld1.32	{d22-d23}, [r2]
  100ee8:	e2812060 	add	r2, r1, #96	; 0x60
  100eec:	f4634a8f 	vld1.32	{d20-d21}, [r3]
  100ef0:	e2803060 	add	r3, r0, #96	; 0x60
  100ef4:	e58d3000 	str	r3, [sp]

__extension__ static __inline float32x4x2_t __attribute__ ((__always_inline__))
vuzpq_f32 (float32x4_t __a, float32x4_t __b)
{
  float32x4x2_t __rv;
  __builtin_neon_vuzpv4sf (&__rv.val[0], __a, __b);
  100ef8:	f3fa0166 	vuzp.32	q8, q11
  100efc:	ecc90b04 	vstmia	r9, {d16-d17}
  100f00:	edc96b04 	vstr	d22, [r9, #16]
  100f04:	edc97b06 	vstr	d23, [r9, #24]
  return __rv;
  100f08:	eddd6b20 	vldr	d22, [sp, #128]	; 0x80
  100f0c:	eddd7b22 	vldr	d23, [sp, #136]	; 0x88
  100f10:	eddd0b1c 	vldr	d16, [sp, #112]	; 0x70
  100f14:	eddd1b1e 	vldr	d17, [sp, #120]	; 0x78

__extension__ static __inline float32x4x2_t __attribute__ ((__always_inline__))
vuzpq_f32 (float32x4_t __a, float32x4_t __b)
{
  float32x4x2_t __rv;
  __builtin_neon_vuzpv4sf (&__rv.val[0], __a, __b);
  100f18:	f3fa2164 	vuzp.32	q9, q10
  100f1c:	ecc92b04 	vstmia	r9, {d18-d19}
  100f20:	edc94b04 	vstr	d20, [r9, #16]
  100f24:	edc95b06 	vstr	d21, [r9, #24]
  return __rv;
  100f28:	eddd4b20 	vldr	d20, [sp, #128]	; 0x80
  100f2c:	eddd5b22 	vldr	d21, [sp, #136]	; 0x88
  100f30:	eddd8b1c 	vldr	d24, [sp, #112]	; 0x70
  100f34:	eddd9b1e 	vldr	d25, [sp, #120]	; 0x78
}

__extension__ static __inline float32x4_t __attribute__ ((__always_inline__))
vmulq_f32 (float32x4_t __a, float32x4_t __b)
{
  return (float32x4_t)__builtin_neon_vmulv4sf (__a, __b, 3);
  100f38:	f346adf4 	vmul.f32	q13, q11, q10
  100f3c:	f3006df8 	vmul.f32	q3, q8, q12
  100f40:	e59d3058 	ldr	r3, [sp, #88]	; 0x58
}

__extension__ static __inline float32x4_t __attribute__ ((__always_inline__))
vld1q_f32 (const float32_t * __a)
{
  return (float32x4_t)__builtin_neon_vld1v4sf ((const __builtin_neon_sf *) __a);
  100f44:	f46b2a8f 	vld1.32	{d18-d19}, [fp]
}

__extension__ static __inline float32x4_t __attribute__ ((__always_inline__))
vmulq_f32 (float32x4_t __a, float32x4_t __b)
{
  return (float32x4_t)__builtin_neon_vmulv4sf (__a, __b, 3);
  100f48:	f3468df8 	vmul.f32	q12, q11, q12
  100f4c:	f3400df4 	vmul.f32	q8, q8, q10
  100f50:	e2533001 	subs	r3, r3, #1
}

__extension__ static __inline float32x4_t __attribute__ ((__always_inline__))
vld1q_f32 (const float32_t * __a)
{
  return (float32x4_t)__builtin_neon_vld1v4sf ((const __builtin_neon_sf *) __a);
  100f54:	f46a6a8f 	vld1.32	{d22-d23}, [sl]
  100f58:	e58d3058 	str	r3, [sp, #88]	; 0x58
  100f5c:	f4654a8f 	vld1.32	{d20-d21}, [r5]
    *pDst++ = (a * d) + (b * c);

    /* Decrement the numSamples loop counter */
    blkCnt--;
  }
}
  100f60:	f266cd6a 	vsub.f32	q14, q3, q13
  100f64:	f248ede0 	vadd.f32	q15, q12, q8
  100f68:	f468aa8f 	vld1.32	{d26-d27}, [r8]
  100f6c:	f4276a8f 	vld1.32	{d6-d7}, [r7]
  100f70:	f4660a8f 	vld1.32	{d16-d17}, [r6]

__extension__ static __inline float32x4x2_t __attribute__ ((__always_inline__))
vuzpq_f32 (float32x4_t __a, float32x4_t __b)
{
  float32x4x2_t __rv;
  __builtin_neon_vuzpv4sf (&__rv.val[0], __a, __b);
  100f74:	f3fa2166 	vuzp.32	q9, q11
  100f78:	ecc92b04 	vstmia	r9, {d18-d19}
  100f7c:	edc96b04 	vstr	d22, [r9, #16]
  100f80:	edc97b06 	vstr	d23, [r9, #24]
  return __rv;
  100f84:	eddd8b1c 	vldr	d24, [sp, #112]	; 0x70
  100f88:	eddd9b1e 	vldr	d25, [sp, #120]	; 0x78
  100f8c:	ed9d2b20 	vldr	d2, [sp, #128]	; 0x80
  100f90:	ed9d3b22 	vldr	d3, [sp, #136]	; 0x88
}

__extension__ static __inline float32x4_t __attribute__ ((__always_inline__))
vld1q_f32 (const float32_t * __a)
{
  return (float32x4_t)__builtin_neon_vld1v4sf ((const __builtin_neon_sf *) __a);
  100f94:	f4642a8f 	vld1.32	{d18-d19}, [r4]
  100f98:	e2804050 	add	r4, r0, #80	; 0x50

__extension__ static __inline float32x4x2_t __attribute__ ((__always_inline__))
vuzpq_f32 (float32x4_t __a, float32x4_t __b)
{
  float32x4x2_t __rv;
  __builtin_neon_vuzpv4sf (&__rv.val[0], __a, __b);
  100f9c:	f3faa146 	vuzp.32	q13, q3
}

__extension__ static __inline float32x4_t __attribute__ ((__always_inline__))
vld1q_f32 (const float32_t * __a)
{
  return (float32x4_t)__builtin_neon_vld1v4sf ((const __builtin_neon_sf *) __a);
  100fa0:	f4646a8f 	vld1.32	{d22-d23}, [r4]

__extension__ static __inline float32x4x2_t __attribute__ ((__always_inline__))
vuzpq_f32 (float32x4_t __a, float32x4_t __b)
{
  float32x4x2_t __rv;
  __builtin_neon_vuzpv4sf (&__rv.val[0], __a, __b);
  100fa4:	ecc9ab04 	vstmia	r9, {d26-d27}
  100fa8:	ed896b04 	vstr	d6, [r9, #16]
  100fac:	ed897b06 	vstr	d7, [r9, #24]
  return __rv;
  100fb0:	ed9d0b1c 	vldr	d0, [sp, #112]	; 0x70
  100fb4:	ed9d1b1e 	vldr	d1, [sp, #120]	; 0x78
  100fb8:	edddab20 	vldr	d26, [sp, #128]	; 0x80
  100fbc:	edddbb22 	vldr	d27, [sp, #136]	; 0x88

__extension__ static __inline float32x4x2_t __attribute__ ((__always_inline__))
vuzpq_f32 (float32x4_t __a, float32x4_t __b)
{
  float32x4x2_t __rv;
  __builtin_neon_vuzpv4sf (&__rv.val[0], __a, __b);
  100fc0:	f3fa0164 	vuzp.32	q8, q10
  100fc4:	ecc90b04 	vstmia	r9, {d16-d17}
  100fc8:	edc94b04 	vstr	d20, [r9, #16]
  100fcc:	edc95b06 	vstr	d21, [r9, #24]

__extension__ static __inline void __attribute__ ((__always_inline__))
vst2q_f32 (float32_t * __a, float32x4x2_t __b)
{
  union { float32x4x2_t __i; __builtin_neon_oi __o; } __bu = { __b };
  __builtin_neon_vst2v4sf ((__builtin_neon_sf *) __a, __bu.__o);
  100fd0:	e59d3004 	ldr	r3, [sp, #4]
__extension__ static __inline float32x4x2_t __attribute__ ((__always_inline__))
vuzpq_f32 (float32x4_t __a, float32x4_t __b)
{
  float32x4x2_t __rv;
  __builtin_neon_vuzpv4sf (&__rv.val[0], __a, __b);
  return __rv;
  100fd4:	eddd0b1c 	vldr	d16, [sp, #112]	; 0x70
  100fd8:	eddd1b1e 	vldr	d17, [sp, #120]	; 0x78
  100fdc:	eddd4b20 	vldr	d20, [sp, #128]	; 0x80
  100fe0:	eddd5b22 	vldr	d21, [sp, #136]	; 0x88

__extension__ static __inline float32x4x2_t __attribute__ ((__always_inline__))
vuzpq_f32 (float32x4_t __a, float32x4_t __b)
{
  float32x4x2_t __rv;
  __builtin_neon_vuzpv4sf (&__rv.val[0], __a, __b);
  100fe4:	f3fa2166 	vuzp.32	q9, q11
}

__extension__ static __inline float32x4_t __attribute__ ((__always_inline__))
vmulq_f32 (float32x4_t __a, float32x4_t __b)
{
  return (float32x4_t)__builtin_neon_vmulv4sf (__a, __b, 3);
  100fe8:	f308edd0 	vmul.f32	q7, q12, q0

__extension__ static __inline void __attribute__ ((__always_inline__))
vst2q_f32 (float32_t * __a, float32x4x2_t __b)
{
  union { float32x4x2_t __i; __builtin_neon_oi __o; } __bu = { __b };
  __builtin_neon_vst2v4sf ((__builtin_neon_sf *) __a, __bu.__o);
  100fec:	f443c38d 	vst2.32	{d28-d31}, [r3]!
  100ff0:	e58d3004 	str	r3, [sp, #4]

__extension__ static __inline float32x4x2_t __attribute__ ((__always_inline__))
vuzpq_f32 (float32x4_t __a, float32x4_t __b)
{
  float32x4x2_t __rv;
  __builtin_neon_vuzpv4sf (&__rv.val[0], __a, __b);
  100ff4:	ecc92b04 	vstmia	r9, {d18-d19}
  100ff8:	edc96b04 	vstr	d22, [r9, #16]
  100ffc:	edc97b06 	vstr	d23, [r9, #24]
}

__extension__ static __inline float32x4_t __attribute__ ((__always_inline__))
vld1q_f32 (const float32_t * __a)
{
  return (float32x4_t)__builtin_neon_vld1v4sf ((const __builtin_neon_sf *) __a);
  101000:	f462ca8f 	vld1.32	{d28-d29}, [r2]
  101004:	e59d3000 	ldr	r3, [sp]
  101008:	e2812070 	add	r2, r1, #112	; 0x70
__extension__ static __inline float32x4x2_t __attribute__ ((__always_inline__))
vuzpq_f32 (float32x4_t __a, float32x4_t __b)
{
  float32x4x2_t __rv;
  __builtin_neon_vuzpv4sf (&__rv.val[0], __a, __b);
  return __rv;
  10100c:	eddd6b1c 	vldr	d22, [sp, #112]	; 0x70
  101010:	eddd7b1e 	vldr	d23, [sp, #120]	; 0x78
}

__extension__ static __inline float32x4_t __attribute__ ((__always_inline__))
vmulq_f32 (float32x4_t __a, float32x4_t __b)
{
  return (float32x4_t)__builtin_neon_vmulv4sf (__a, __b, 3);
  101014:	f340edf6 	vmul.f32	q15, q8, q11
  101018:	edcdeb02 	vstr	d30, [sp, #8]
  10101c:	edcdfb04 	vstr	d31, [sp, #16]
}

__extension__ static __inline float32x4_t __attribute__ ((__always_inline__))
vld1q_f32 (const float32_t * __a)
{
  return (float32x4_t)__builtin_neon_vld1v4sf ((const __builtin_neon_sf *) __a);
  101020:	f4226a8f 	vld1.32	{d6-d7}, [r2]
__extension__ static __inline float32x4x2_t __attribute__ ((__always_inline__))
vuzpq_f32 (float32x4_t __a, float32x4_t __b)
{
  float32x4x2_t __rv;
  __builtin_neon_vuzpv4sf (&__rv.val[0], __a, __b);
  return __rv;
  101024:	eddd2b20 	vldr	d18, [sp, #128]	; 0x80
  101028:	eddd3b22 	vldr	d19, [sp, #136]	; 0x88

__extension__ static __inline void __attribute__ ((__always_inline__))
vst2q_f32 (float32_t * __a, float32x4x2_t __b)
{
  union { float32x4x2_t __i; __builtin_neon_oi __o; } __bu = { __b };
  __builtin_neon_vst2v4sf ((__builtin_neon_sf *) __a, __bu.__o);
  10102c:	e28d2018 	add	r2, sp, #24
}

__extension__ static __inline float32x4_t __attribute__ ((__always_inline__))
vld1q_f32 (const float32_t * __a)
{
  return (float32x4_t)__builtin_neon_vld1v4sf ((const __builtin_neon_sf *) __a);
  101030:	f463ea8f 	vld1.32	{d30-d31}, [r3]
  101034:	e2803070 	add	r3, r0, #112	; 0x70
}

__extension__ static __inline float32x4_t __attribute__ ((__always_inline__))
vmulq_f32 (float32x4_t __a, float32x4_t __b)
{
  return (float32x4_t)__builtin_neon_vmulv4sf (__a, __b, 3);
  101038:	f302cd7a 	vmul.f32	q6, q1, q13
}

__extension__ static __inline float32x4_t __attribute__ ((__always_inline__))
vld1q_f32 (const float32_t * __a)
{
  return (float32x4_t)__builtin_neon_vld1v4sf ((const __builtin_neon_sf *) __a);
  10103c:	e2811080 	add	r1, r1, #128	; 0x80
  101040:	f4234a8f 	vld1.32	{d4-d5}, [r3]

__extension__ static __inline void __attribute__ ((__always_inline__))
vst2q_f32 (float32_t * __a, float32x4x2_t __b)
{
  union { float32x4x2_t __i; __builtin_neon_oi __o; } __bu = { __b };
  __builtin_neon_vst2v4sf ((__builtin_neon_sf *) __a, __bu.__o);
  101044:	e28c3040 	add	r3, ip, #64	; 0x40
}

__extension__ static __inline float32x4_t __attribute__ ((__always_inline__))
vld1q_f32 (const float32_t * __a)
{
  return (float32x4_t)__builtin_neon_vld1v4sf ((const __builtin_neon_sf *) __a);
  101048:	e2800080 	add	r0, r0, #128	; 0x80

__extension__ static __inline float32x4x2_t __attribute__ ((__always_inline__))
vuzpq_f32 (float32x4_t __a, float32x4_t __b)
{
  float32x4x2_t __rv;
  __builtin_neon_vuzpv4sf (&__rv.val[0], __a, __b);
  10104c:	f3fac146 	vuzp.32	q14, q3
  101050:	ecc9cb04 	vstmia	r9, {d28-d29}
  101054:	ed896b04 	vstr	d6, [r9, #16]
  101058:	ed897b06 	vstr	d7, [r9, #24]
  return __rv;
  10105c:	edddcb1c 	vldr	d28, [sp, #112]	; 0x70
  101060:	eddddb1e 	vldr	d29, [sp, #120]	; 0x78
  101064:	ed9d6b20 	vldr	d6, [sp, #128]	; 0x80
  101068:	ed9d7b22 	vldr	d7, [sp, #136]	; 0x88

__extension__ static __inline float32x4x2_t __attribute__ ((__always_inline__))
vuzpq_f32 (float32x4_t __a, float32x4_t __b)
{
  float32x4x2_t __rv;
  __builtin_neon_vuzpv4sf (&__rv.val[0], __a, __b);
  10106c:	f3fae144 	vuzp.32	q15, q2
  101070:	ecc9eb04 	vstmia	r9, {d30-d31}
  101074:	ed894b04 	vstr	d4, [r9, #16]
  101078:	ed895b06 	vstr	d5, [r9, #24]
  return __rv;
  10107c:	edddeb20 	vldr	d30, [sp, #128]	; 0x80
  101080:	edddfb22 	vldr	d31, [sp, #136]	; 0x88
  101084:	ed9d4b1c 	vldr	d4, [sp, #112]	; 0x70
  101088:	ed9d5b1e 	vldr	d5, [sp, #120]	; 0x78
}

__extension__ static __inline float32x4_t __attribute__ ((__always_inline__))
vmulq_f32 (float32x4_t __a, float32x4_t __b)
{
  return (float32x4_t)__builtin_neon_vmulv4sf (__a, __b, 3);
  10108c:	f3022d50 	vmul.f32	q1, q1, q0
  101090:	f30c8dd4 	vmul.f32	q4, q14, q2
  101094:	f3060d7e 	vmul.f32	q0, q3, q15
  101098:	f34ccdfe 	vmul.f32	q14, q14, q15
  10109c:	edddeb02 	vldr	d30, [sp, #8]
  1010a0:	edddfb04 	vldr	d31, [sp, #16]
  1010a4:	f3066d54 	vmul.f32	q3, q3, q2
}

__extension__ static __inline float32x4_t __attribute__ ((__always_inline__))
vsubq_f32 (float32x4_t __a, float32x4_t __b)
{
  return (float32x4_t)__builtin_neon_vsubv4sf (__a, __b, 3);
  1010a8:	f2280d40 	vsub.f32	q0, q4, q0
}

__extension__ static __inline float32x4_t __attribute__ ((__always_inline__))
vmulq_f32 (float32x4_t __a, float32x4_t __b)
{
  return (float32x4_t)__builtin_neon_vmulv4sf (__a, __b, 3);
  1010ac:	f304adf2 	vmul.f32	q5, q10, q9
}

__extension__ static __inline float32x4_t __attribute__ ((__always_inline__))
vaddq_f32 (float32x4_t __a, float32x4_t __b)
{
  return (float32x4_t)__builtin_neon_vaddv4sf (__a, __b, 3);
  1010b0:	f2066d6c 	vadd.f32	q3, q3, q14
}

__extension__ static __inline float32x4_t __attribute__ ((__always_inline__))
vmulq_f32 (float32x4_t __a, float32x4_t __b)
{
  return (float32x4_t)__builtin_neon_vmulv4sf (__a, __b, 3);
  1010b4:	f3400df2 	vmul.f32	q8, q8, q9
  1010b8:	f3488dfa 	vmul.f32	q12, q12, q13

__extension__ static __inline float32x4x2_t __attribute__ ((__always_inline__))
vzipq_f32 (float32x4_t __a, float32x4_t __b)
{
  float32x4x2_t __rv;
  __builtin_neon_vzipv4sf (&__rv.val[0], __a, __b);
  1010bc:	f3ba01c6 	vzip.32	q0, q3
}

__extension__ static __inline float32x4_t __attribute__ ((__always_inline__))
vmulq_f32 (float32x4_t __a, float32x4_t __b)
{
  return (float32x4_t)__builtin_neon_vmulv4sf (__a, __b, 3);
  1010c0:	f3444df6 	vmul.f32	q10, q10, q11
  1010c4:	f26e2d4c 	vsub.f32	q9, q7, q6
  1010c8:	edcd2b06 	vstr	d18, [sp, #24]
  1010cc:	edcd3b08 	vstr	d19, [sp, #32]
  1010d0:	f26eedca 	vsub.f32	q15, q15, q5
  1010d4:	edcdeb0e 	vstr	d30, [sp, #56]	; 0x38
  1010d8:	edcdfb10 	vstr	d31, [sp, #64]	; 0x40
  1010dc:	f2422d68 	vadd.f32	q9, q1, q12
  1010e0:	edcd2b0a 	vstr	d18, [sp, #40]	; 0x28
  1010e4:	edcd3b0c 	vstr	d19, [sp, #48]	; 0x30
  1010e8:	f244ede0 	vadd.f32	q15, q10, q8
  1010ec:	edcdeb12 	vstr	d30, [sp, #72]	; 0x48
  1010f0:	edcdfb14 	vstr	d31, [sp, #80]	; 0x50

__extension__ static __inline float32x4x2_t __attribute__ ((__always_inline__))
vzipq_f32 (float32x4_t __a, float32x4_t __b)
{
  float32x4x2_t __rv;
  __builtin_neon_vzipv4sf (&__rv.val[0], __a, __b);
  1010f4:	ec890b04 	vstmia	r9, {d0-d1}
  1010f8:	ed896b04 	vstr	d6, [r9, #16]
  1010fc:	ed897b06 	vstr	d7, [r9, #24]

__extension__ static __inline void __attribute__ ((__always_inline__))
vst2q_f32 (float32_t * __a, float32x4x2_t __b)
{
  union { float32x4x2_t __i; __builtin_neon_oi __o; } __bu = { __b };
  __builtin_neon_vst2v4sf ((__builtin_neon_sf *) __a, __bu.__o);
  101100:	ecd20b08 	vldmia	r2, {d16-d19}
  101104:	e59d2004 	ldr	r2, [sp, #4]
  101108:	f442038f 	vst2.32	{d16-d19}, [r2]
  10110c:	e28d2038 	add	r2, sp, #56	; 0x38
  101110:	ecd20b08 	vldmia	r2, {d16-d19}
  101114:	f443038f 	vst2.32	{d16-d19}, [r3]
}

__extension__ static __inline void __attribute__ ((__always_inline__))
vst1q_f32 (float32_t * __a, float32x4_t __b)
{
  __builtin_neon_vst1v4sf ((__builtin_neon_sf *) __a, __b);
  101118:	e28c3060 	add	r3, ip, #96	; 0x60
  10111c:	eddd0b1c 	vldr	d16, [sp, #112]	; 0x70
  101120:	eddd1b1e 	vldr	d17, [sp, #120]	; 0x78
  101124:	eddd2b20 	vldr	d18, [sp, #128]	; 0x80
  101128:	eddd3b22 	vldr	d19, [sp, #136]	; 0x88
  10112c:	f4430a8f 	vst1.32	{d16-d17}, [r3]
  101130:	e28c3070 	add	r3, ip, #112	; 0x70
  101134:	e28cc080 	add	ip, ip, #128	; 0x80
  101138:	f4432a8f 	vst1.32	{d18-d19}, [r3]
  uint32_t blkCnt;                               /* loop counters */

  /* Loop over blockSize number of values */
  blkCnt = numSamples >> 4u;

  while(blkCnt > 0u)
  10113c:	1affff5c 	bne	100eb4 <arm_cmplx_mult_cmplx_f32+0x48>
 * @param[out]  *pDst  points to the output vector     
 * @param[in]  numSamples number of complex samples in each vector     
 * @return none.     
 */

void arm_cmplx_mult_cmplx_f32(
  101140:	e28d2060 	add	r2, sp, #96	; 0x60
  101144:	e8920584 	ldm	r2, {r2, r7, r8, sl}
  101148:	e1a03382 	lsl	r3, r2, #7
  10114c:	e0877003 	add	r7, r7, r3
  101150:	e0888003 	add	r8, r8, r3
  101154:	e08aa003 	add	sl, sl, r3
    /* Decrement the numSamples loop counter */
    blkCnt--;
  }

  blkCnt = numSamples & 15u;
  blkCnt = blkCnt >> 2u;
  101158:	e59d305c 	ldr	r3, [sp, #92]	; 0x5c
  10115c:	e7e16153 	ubfx	r6, r3, #2, #2

  /* If the blockSize is not a multiple of 16, compute remaining output samples.     
   ** Compute multiple of 4 samples at a time in second loop.  
   ** and remaining 1 to 3 samples in third loop. */
  while(blkCnt > 0u)
  101160:	e3560000 	cmp	r6, #0
  101164:	0a000034 	beq	10123c <arm_cmplx_mult_cmplx_f32+0x3d0>
  101168:	e1a05006 	mov	r5, r6
  10116c:	e1a0400a 	mov	r4, sl
  101170:	e1a0c008 	mov	ip, r8
  101174:	e1a00007 	mov	r0, r7
  101178:	e28d9070 	add	r9, sp, #112	; 0x70
}

__extension__ static __inline float32x4_t __attribute__ ((__always_inline__))
vld1q_f32 (const float32_t * __a)
{
  return (float32x4_t)__builtin_neon_vld1v4sf ((const __builtin_neon_sf *) __a);
  10117c:	e1a01000 	mov	r1, r0
  101180:	e1a0200c 	mov	r2, ip
}

__extension__ static __inline void __attribute__ ((__always_inline__))
vst1q_f32 (float32_t * __a, float32x4_t __b)
{
  __builtin_neon_vst1v4sf ((__builtin_neon_sf *) __a, __b);
  101184:	e1a03004 	mov	r3, r4
  101188:	e2555001 	subs	r5, r5, #1
}

__extension__ static __inline float32x4_t __attribute__ ((__always_inline__))
vld1q_f32 (const float32_t * __a)
{
  return (float32x4_t)__builtin_neon_vld1v4sf ((const __builtin_neon_sf *) __a);
  10118c:	f4612a8d 	vld1.32	{d18-d19}, [r1]!
 * @param[out]  *pDst  points to the output vector     
 * @param[in]  numSamples number of complex samples in each vector     
 * @return none.     
 */

void arm_cmplx_mult_cmplx_f32(
  101190:	e2800020 	add	r0, r0, #32
  101194:	e28cc020 	add	ip, ip, #32
  101198:	e2844020 	add	r4, r4, #32
  10119c:	f4620a8d 	vld1.32	{d16-d17}, [r2]!
  1011a0:	f4614a8f 	vld1.32	{d20-d21}, [r1]
  1011a4:	f4626a8f 	vld1.32	{d22-d23}, [r2]

__extension__ static __inline float32x4x2_t __attribute__ ((__always_inline__))
vuzpq_f32 (float32x4_t __a, float32x4_t __b)
{
  float32x4x2_t __rv;
  __builtin_neon_vuzpv4sf (&__rv.val[0], __a, __b);
  1011a8:	f3fa2164 	vuzp.32	q9, q10
  1011ac:	ecc92b04 	vstmia	r9, {d18-d19}
  1011b0:	edc94b04 	vstr	d20, [r9, #16]
  1011b4:	edc95b06 	vstr	d21, [r9, #24]
  return __rv;
  1011b8:	eddd4b1c 	vldr	d20, [sp, #112]	; 0x70
  1011bc:	eddd5b1e 	vldr	d21, [sp, #120]	; 0x78
  1011c0:	eddd2b20 	vldr	d18, [sp, #128]	; 0x80
  1011c4:	eddd3b22 	vldr	d19, [sp, #136]	; 0x88

__extension__ static __inline float32x4x2_t __attribute__ ((__always_inline__))
vuzpq_f32 (float32x4_t __a, float32x4_t __b)
{
  float32x4x2_t __rv;
  __builtin_neon_vuzpv4sf (&__rv.val[0], __a, __b);
  1011c8:	f3fa0166 	vuzp.32	q8, q11
  1011cc:	ecc90b04 	vstmia	r9, {d16-d17}
  1011d0:	edc96b04 	vstr	d22, [r9, #16]
  1011d4:	edc97b06 	vstr	d23, [r9, #24]
  return __rv;
  1011d8:	eddd8b1c 	vldr	d24, [sp, #112]	; 0x70
  1011dc:	eddd9b1e 	vldr	d25, [sp, #120]	; 0x78
  1011e0:	eddd6b20 	vldr	d22, [sp, #128]	; 0x80
  1011e4:	eddd7b22 	vldr	d23, [sp, #136]	; 0x88
}

__extension__ static __inline float32x4_t __attribute__ ((__always_inline__))
vmulq_f32 (float32x4_t __a, float32x4_t __b)
{
  return (float32x4_t)__builtin_neon_vmulv4sf (__a, __b, 3);
  1011e8:	f344adf8 	vmul.f32	q13, q10, q12
  1011ec:	f3420df6 	vmul.f32	q8, q9, q11
  1011f0:	f3444df6 	vmul.f32	q10, q10, q11
  1011f4:	f3422df8 	vmul.f32	q9, q9, q12
}

__extension__ static __inline float32x4_t __attribute__ ((__always_inline__))
vsubq_f32 (float32x4_t __a, float32x4_t __b)
{
  return (float32x4_t)__builtin_neon_vsubv4sf (__a, __b, 3);
  1011f8:	f26a0de0 	vsub.f32	q8, q13, q8
}

__extension__ static __inline float32x4_t __attribute__ ((__always_inline__))
vaddq_f32 (float32x4_t __a, float32x4_t __b)
{
  return (float32x4_t)__builtin_neon_vaddv4sf (__a, __b, 3);
  1011fc:	f2422de4 	vadd.f32	q9, q9, q10

__extension__ static __inline float32x4x2_t __attribute__ ((__always_inline__))
vzipq_f32 (float32x4_t __a, float32x4_t __b)
{
  float32x4x2_t __rv;
  __builtin_neon_vzipv4sf (&__rv.val[0], __a, __b);
  101200:	f3fa01e2 	vzip.32	q8, q9
  101204:	ecc90b04 	vstmia	r9, {d16-d17}
  101208:	edc92b04 	vstr	d18, [r9, #16]
  10120c:	edc93b06 	vstr	d19, [r9, #24]
}

__extension__ static __inline void __attribute__ ((__always_inline__))
vst1q_f32 (float32_t * __a, float32x4_t __b)
{
  __builtin_neon_vst1v4sf ((__builtin_neon_sf *) __a, __b);
  101210:	eddd0b1c 	vldr	d16, [sp, #112]	; 0x70
  101214:	eddd1b1e 	vldr	d17, [sp, #120]	; 0x78
  101218:	eddd2b20 	vldr	d18, [sp, #128]	; 0x80
  10121c:	eddd3b22 	vldr	d19, [sp, #136]	; 0x88
  101220:	f4430a8d 	vst1.32	{d16-d17}, [r3]!
  101224:	f4432a8f 	vst1.32	{d18-d19}, [r3]
  blkCnt = blkCnt >> 2u;

  /* If the blockSize is not a multiple of 16, compute remaining output samples.     
   ** Compute multiple of 4 samples at a time in second loop.  
   ** and remaining 1 to 3 samples in third loop. */
  while(blkCnt > 0u)
  101228:	1affffd3 	bne	10117c <arm_cmplx_mult_cmplx_f32+0x310>
 * @param[out]  *pDst  points to the output vector     
 * @param[in]  numSamples number of complex samples in each vector     
 * @return none.     
 */

void arm_cmplx_mult_cmplx_f32(
  10122c:	e1a06286 	lsl	r6, r6, #5
  101230:	e0877006 	add	r7, r7, r6
  101234:	e0888006 	add	r8, r8, r6
  101238:	e08aa006 	add	sl, sl, r6

  blkCnt = numSamples & 3u;

  /* If the blockSize is not a multiple of 4, compute any remaining output samples here.     
   ** No intrinsics is used. */
  while(blkCnt > 0u)
  10123c:	e59d205c 	ldr	r2, [sp, #92]	; 0x5c
  101240:	e2123003 	ands	r3, r2, #3
  101244:	0a00000e 	beq	101284 <arm_cmplx_mult_cmplx_f32+0x418>
 * @param[out]  *pDst  points to the output vector     
 * @param[in]  numSamples number of complex samples in each vector     
 * @return none.     
 */

void arm_cmplx_mult_cmplx_f32(
  101248:	e2888008 	add	r8, r8, #8
   ** No intrinsics is used. */
  while(blkCnt > 0u)
  {
    /* C[2 * i] = A[2 * i] * B[2 * i] - A[2 * i + 1] * B[2 * i + 1].  */
    /* C[2 * i + 1] = A[2 * i] * B[2 * i + 1] + A[2 * i + 1] * B[2 * i].  */
    a = *pSrcA++;
  10124c:	edd75a00 	vldr	s11, [r7]
    b = *pSrcA++;
  101250:	ed976a01 	vldr	s12, [r7, #4]

  blkCnt = numSamples & 3u;

  /* If the blockSize is not a multiple of 4, compute any remaining output samples here.     
   ** No intrinsics is used. */
  while(blkCnt > 0u)
  101254:	e2533001 	subs	r3, r3, #1
    /* C[2 * i] = A[2 * i] * B[2 * i] - A[2 * i + 1] * B[2 * i + 1].  */
    /* C[2 * i + 1] = A[2 * i] * B[2 * i + 1] + A[2 * i + 1] * B[2 * i].  */
    a = *pSrcA++;
    b = *pSrcA++;
    c = *pSrcB++;
    d = *pSrcB++;
  101258:	ed587a01 	vldr	s15, [r8, #-4]
 * @param[out]  *pDst  points to the output vector     
 * @param[in]  numSamples number of complex samples in each vector     
 * @return none.     
 */

void arm_cmplx_mult_cmplx_f32(
  10125c:	e28aa008 	add	sl, sl, #8
  {
    /* C[2 * i] = A[2 * i] * B[2 * i] - A[2 * i + 1] * B[2 * i + 1].  */
    /* C[2 * i + 1] = A[2 * i] * B[2 * i + 1] + A[2 * i + 1] * B[2 * i].  */
    a = *pSrcA++;
    b = *pSrcA++;
    c = *pSrcB++;
  101260:	ed586a02 	vldr	s13, [r8, #-8]
 * @param[out]  *pDst  points to the output vector     
 * @param[in]  numSamples number of complex samples in each vector     
 * @return none.     
 */

void arm_cmplx_mult_cmplx_f32(
  101264:	e2877008 	add	r7, r7, #8
    b = *pSrcA++;
    c = *pSrcB++;
    d = *pSrcB++;

    /* store the result in the destination buffer. */
    *pDst++ = (a * c) - (b * d);
  101268:	ee267a27 	vmul.f32	s14, s12, s15
    *pDst++ = (a * d) + (b * c);
  10126c:	ee657aa7 	vmul.f32	s15, s11, s15
    b = *pSrcA++;
    c = *pSrcB++;
    d = *pSrcB++;

    /* store the result in the destination buffer. */
    *pDst++ = (a * c) - (b * d);
  101270:	ee157aa6 	vnmls.f32	s14, s11, s13
    *pDst++ = (a * d) + (b * c);
  101274:	ee467a26 	vmla.f32	s15, s12, s13
    b = *pSrcA++;
    c = *pSrcB++;
    d = *pSrcB++;

    /* store the result in the destination buffer. */
    *pDst++ = (a * c) - (b * d);
  101278:	ed0a7a02 	vstr	s14, [sl, #-8]
    *pDst++ = (a * d) + (b * c);
  10127c:	ed4a7a01 	vstr	s15, [sl, #-4]

  blkCnt = numSamples & 3u;

  /* If the blockSize is not a multiple of 4, compute any remaining output samples here.     
   ** No intrinsics is used. */
  while(blkCnt > 0u)
  101280:	1afffff0 	bne	101248 <arm_cmplx_mult_cmplx_f32+0x3dc>
    *pDst++ = (a * d) + (b * c);

    /* Decrement the numSamples loop counter */
    blkCnt--;
  }
}
  101284:	e28dd090 	add	sp, sp, #144	; 0x90
  101288:	ecbd8b10 	vpop	{d8-d15}
  10128c:	e8bd0ff0 	pop	{r4, r5, r6, r7, r8, r9, sl, fp}
  101290:	e12fff1e 	bx	lr

00101294 <arm_cmplx_mult_cmplx_f32_dot>:
void arm_cmplx_mult_cmplx_f32_dot(
  float32_t * pSrcA,
  float32_t * pSrcB,
  float32_t * pDst,
  uint32_t numSamples)
{
  101294:	e92d0ff0 	push	{r4, r5, r6, r7, r8, r9, sl, fp}
  101298:	e1a06000 	mov	r6, r0
  10129c:	ed2d8b10 	vpush	{d8-d15}
  1012a0:	e24dd0d8 	sub	sp, sp, #216	; 0xd8
  1012a4:	e1a07001 	mov	r7, r1
  1012a8:	e58d30a4 	str	r3, [sp, #164]	; 0xa4
  acc4.val[1] = vdupq_n_f32(0.0f);

  /* Loop over blockSize number of values */
  blkCnt = numSamples >> 4u;

  while(blkCnt > 0u)
  1012ac:	e1b03223 	lsrs	r3, r3, #4
}

__extension__ static __inline float32x4_t __attribute__ ((__always_inline__))
vdupq_n_f32 (float32_t __a)
{
  return (float32x4_t)__builtin_neon_vdup_nv4sf ((__builtin_neon_sf) __a);
  1012b0:	f280c050 	vmov.i32	q6, #0	; 0x00000000
  1012b4:	ed8dcb08 	vstr	d12, [sp, #32]
  1012b8:	ed8ddb0a 	vstr	d13, [sp, #40]	; 0x28
  1012bc:	e58d30ac 	str	r3, [sp, #172]	; 0xac
  1012c0:	ed8dcb0c 	vstr	d12, [sp, #48]	; 0x30
  1012c4:	ed8ddb0e 	vstr	d13, [sp, #56]	; 0x38
  1012c8:	f22ce15c 	vorr	q7, q6, q6
  1012cc:	ed8dcb10 	vstr	d12, [sp, #64]	; 0x40
  1012d0:	ed8ddb12 	vstr	d13, [sp, #72]	; 0x48
void arm_cmplx_mult_cmplx_f32_dot(
  float32_t * pSrcA,
  float32_t * pSrcB,
  float32_t * pDst,
  uint32_t numSamples)
{
  1012d4:	e58d20a8 	str	r2, [sp, #168]	; 0xa8
  1012d8:	ed8dcb14 	vstr	d12, [sp, #80]	; 0x50
  1012dc:	ed8ddb16 	vstr	d13, [sp, #88]	; 0x58
  1012e0:	ed8dcb18 	vstr	d12, [sp, #96]	; 0x60
  1012e4:	ed8ddb1a 	vstr	d13, [sp, #104]	; 0x68
  1012e8:	ed8dcb1c 	vstr	d12, [sp, #112]	; 0x70
  1012ec:	ed8ddb1e 	vstr	d13, [sp, #120]	; 0x78
  acc4.val[1] = vdupq_n_f32(0.0f);

  /* Loop over blockSize number of values */
  blkCnt = numSamples >> 4u;

  while(blkCnt > 0u)
  1012f0:	0a0000bb 	beq	1015e4 <arm_cmplx_mult_cmplx_f32_dot+0x350>
  1012f4:	f22ca15c 	vorr	q5, q6, q6
  1012f8:	e1a0c001 	mov	ip, r1
  1012fc:	e58d30a0 	str	r3, [sp, #160]	; 0xa0
  101300:	e28d30b8 	add	r3, sp, #184	; 0xb8
  101304:	ed8dcb20 	vstr	d12, [sp, #128]	; 0x80
  101308:	ed8ddb22 	vstr	d13, [sp, #136]	; 0x88
  10130c:	e58d60b0 	str	r6, [sp, #176]	; 0xb0
  101310:	e58d10b4 	str	r1, [sp, #180]	; 0xb4
}

__extension__ static __inline float32x4_t __attribute__ ((__always_inline__))
vld1q_f32 (const float32_t * __a)
{
  return (float32x4_t)__builtin_neon_vld1v4sf ((const __builtin_neon_sf *) __a);
  101314:	e1a01000 	mov	r1, r0
  101318:	e1a0200c 	mov	r2, ip
  10131c:	e2804070 	add	r4, r0, #112	; 0x70
  101320:	e280b020 	add	fp, r0, #32
  101324:	f4612a8d 	vld1.32	{d18-d19}, [r1]!
  101328:	e2809030 	add	r9, r0, #48	; 0x30
  10132c:	e58d4010 	str	r4, [sp, #16]
  101330:	e28ca020 	add	sl, ip, #32
  101334:	e59d40a0 	ldr	r4, [sp, #160]	; 0xa0
  101338:	e28c8030 	add	r8, ip, #48	; 0x30
  10133c:	f4620a8d 	vld1.32	{d16-d17}, [r2]!
  101340:	e2807040 	add	r7, r0, #64	; 0x40
  101344:	e28c5040 	add	r5, ip, #64	; 0x40
  101348:	e2806050 	add	r6, r0, #80	; 0x50
  10134c:	f4616a8f 	vld1.32	{d22-d23}, [r1]
  101350:	e2544001 	subs	r4, r4, #1
  101354:	e58d40a0 	str	r4, [sp, #160]	; 0xa0
  101358:	e28c1060 	add	r1, ip, #96	; 0x60
  10135c:	f4624a8f 	vld1.32	{d20-d21}, [r2]
  101360:	e28c2070 	add	r2, ip, #112	; 0x70

__extension__ static __inline float32x4x2_t __attribute__ ((__always_inline__))
vuzpq_f32 (float32x4_t __a, float32x4_t __b)
{
  float32x4x2_t __rv;
  __builtin_neon_vuzpv4sf (&__rv.val[0], __a, __b);
  101364:	f3fa2166 	vuzp.32	q9, q11
  101368:	ecc32b04 	vstmia	r3, {d18-d19}
  10136c:	edc36b04 	vstr	d22, [r3, #16]
  101370:	edc37b06 	vstr	d23, [r3, #24]
  return __rv;
  101374:	eddd2b2e 	vldr	d18, [sp, #184]	; 0xb8
  101378:	eddd3b30 	vldr	d19, [sp, #192]	; 0xc0
  10137c:	edddab32 	vldr	d26, [sp, #200]	; 0xc8
  101380:	edddbb34 	vldr	d27, [sp, #208]	; 0xd0
}

__extension__ static __inline float32x4_t __attribute__ ((__always_inline__))
vld1q_f32 (const float32_t * __a)
{
  return (float32x4_t)__builtin_neon_vld1v4sf ((const __builtin_neon_sf *) __a);
  101384:	f46b8a8f 	vld1.32	{d24-d25}, [fp]
  101388:	f469ea8f 	vld1.32	{d30-d31}, [r9]

__extension__ static __inline float32x4x2_t __attribute__ ((__always_inline__))
vuzpq_f32 (float32x4_t __a, float32x4_t __b)
{
  float32x4x2_t __rv;
  __builtin_neon_vuzpv4sf (&__rv.val[0], __a, __b);
  10138c:	f3fa0164 	vuzp.32	q8, q10
  101390:	ecc30b04 	vstmia	r3, {d16-d17}
  101394:	edc34b04 	vstr	d20, [r3, #16]
  101398:	edc35b06 	vstr	d21, [r3, #24]
  return __rv;
  10139c:	edddcb2e 	vldr	d28, [sp, #184]	; 0xb8
  1013a0:	eddddb30 	vldr	d29, [sp, #192]	; 0xc0
  1013a4:	ed9dcb32 	vldr	d12, [sp, #200]	; 0xc8
  1013a8:	ed9ddb34 	vldr	d13, [sp, #208]	; 0xd0
}

__extension__ static __inline float32x4_t __attribute__ ((__always_inline__))
vld1q_f32 (const float32_t * __a)
{
  return (float32x4_t)__builtin_neon_vld1v4sf ((const __builtin_neon_sf *) __a);
  1013ac:	f46a0a8f 	vld1.32	{d16-d17}, [sl]
}

__extension__ static __inline float32x4_t __attribute__ ((__always_inline__))
vmulq_f32 (float32x4_t __a, float32x4_t __b)
{
  return (float32x4_t)__builtin_neon_vmulv4sf (__a, __b, 3);
  1013b0:	f3028dfc 	vmul.f32	q4, q9, q14
  1013b4:	ed8d8b24 	vstr	d8, [sp, #144]	; 0x90
  1013b8:	ed8d9b26 	vstr	d9, [sp, #152]	; 0x98
}

__extension__ static __inline float32x4_t __attribute__ ((__always_inline__))
vld1q_f32 (const float32_t * __a)
{
  return (float32x4_t)__builtin_neon_vld1v4sf ((const __builtin_neon_sf *) __a);
  1013bc:	f4684a8f 	vld1.32	{d20-d21}, [r8]
  1013c0:	f4676a8f 	vld1.32	{d22-d23}, [r7]
}

__extension__ static __inline float32x4_t __attribute__ ((__always_inline__))
vmulq_f32 (float32x4_t __a, float32x4_t __b)
{
  return (float32x4_t)__builtin_neon_vmulv4sf (__a, __b, 3);
  1013c4:	f30aeddc 	vmul.f32	q7, q13, q6
  1013c8:	f302cddc 	vmul.f32	q6, q9, q6

__extension__ static __inline float32x4x2_t __attribute__ ((__always_inline__))
vuzpq_f32 (float32x4_t __a, float32x4_t __b)
{
  float32x4x2_t __rv;
  __builtin_neon_vuzpv4sf (&__rv.val[0], __a, __b);
  1013cc:	f3fa816e 	vuzp.32	q12, q15
  1013d0:	edc3eb04 	vstr	d30, [r3, #16]
  1013d4:	edc3fb06 	vstr	d31, [r3, #24]
  1013d8:	ecc38b04 	vstmia	r3, {d24-d25}
  return __rv;
  1013dc:	ed9d4b2e 	vldr	d4, [sp, #184]	; 0xb8
  1013e0:	ed9d5b30 	vldr	d5, [sp, #192]	; 0xc0
  1013e4:	ed9d6b32 	vldr	d6, [sp, #200]	; 0xc8
  1013e8:	ed9d7b34 	vldr	d7, [sp, #208]	; 0xd0
}

__extension__ static __inline float32x4_t __attribute__ ((__always_inline__))
vld1q_f32 (const float32_t * __a)
{
  return (float32x4_t)__builtin_neon_vld1v4sf ((const __builtin_neon_sf *) __a);
  1013ec:	f4668a8f 	vld1.32	{d24-d25}, [r6]
}

__extension__ static __inline float32x4_t __attribute__ ((__always_inline__))
vmulq_f32 (float32x4_t __a, float32x4_t __b)
{
  return (float32x4_t)__builtin_neon_vmulv4sf (__a, __b, 3);
  1013f0:	f34aedfc 	vmul.f32	q15, q13, q14

__extension__ static __inline float32x4x2_t __attribute__ ((__always_inline__))
vuzpq_f32 (float32x4_t __a, float32x4_t __b)
{
  float32x4x2_t __rv;
  __builtin_neon_vuzpv4sf (&__rv.val[0], __a, __b);
  1013f4:	f3fa0164 	vuzp.32	q8, q10
  1013f8:	ecc30b04 	vstmia	r3, {d16-d17}
  1013fc:	edc34b04 	vstr	d20, [r3, #16]
  101400:	edc35b06 	vstr	d21, [r3, #24]
}

__extension__ static __inline float32x4_t __attribute__ ((__always_inline__))
vmulq_f32 (float32x4_t __a, float32x4_t __b)
{
  return (float32x4_t)__builtin_neon_vmulv4sf (__a, __b, 3);
  101404:	eccdeb04 	vstmia	sp, {d30-d31}
__extension__ static __inline float32x4x2_t __attribute__ ((__always_inline__))
vuzpq_f32 (float32x4_t __a, float32x4_t __b)
{
  float32x4x2_t __rv;
  __builtin_neon_vuzpv4sf (&__rv.val[0], __a, __b);
  return __rv;
  101408:	ed9d0b2e 	vldr	d0, [sp, #184]	; 0xb8
  10140c:	ed9d1b30 	vldr	d1, [sp, #192]	; 0xc0
  101410:	ed9d2b32 	vldr	d2, [sp, #200]	; 0xc8
  101414:	ed9d3b34 	vldr	d3, [sp, #208]	; 0xd0
}

__extension__ static __inline float32x4_t __attribute__ ((__always_inline__))
vld1q_f32 (const float32_t * __a)
{
  return (float32x4_t)__builtin_neon_vld1v4sf ((const __builtin_neon_sf *) __a);
  101418:	f4650a8f 	vld1.32	{d16-d17}, [r5]
  10141c:	e28c5050 	add	r5, ip, #80	; 0x50
}

__extension__ static __inline float32x4_t __attribute__ ((__always_inline__))
vmulq_f32 (float32x4_t __a, float32x4_t __b)
{
  return (float32x4_t)__builtin_neon_vmulv4sf (__a, __b, 3);
  101420:	f3048d50 	vmul.f32	q4, q2, q0
}

__extension__ static __inline float32x4_t __attribute__ ((__always_inline__))
vld1q_f32 (const float32_t * __a)
{
  return (float32x4_t)__builtin_neon_vld1v4sf ((const __builtin_neon_sf *) __a);
  101424:	e28cc080 	add	ip, ip, #128	; 0x80
  101428:	f4654a8f 	vld1.32	{d20-d21}, [r5]
  10142c:	e2805060 	add	r5, r0, #96	; 0x60
  101430:	e2800080 	add	r0, r0, #128	; 0x80

__extension__ static __inline float32x4x2_t __attribute__ ((__always_inline__))
vuzpq_f32 (float32x4_t __a, float32x4_t __b)
{
  float32x4x2_t __rv;
  __builtin_neon_vuzpv4sf (&__rv.val[0], __a, __b);
  101434:	f3fa6168 	vuzp.32	q11, q12
  101438:	ecc36b04 	vstmia	r3, {d22-d23}
  10143c:	edc38b04 	vstr	d24, [r3, #16]
  101440:	edc39b06 	vstr	d25, [r3, #24]
  return __rv;
  101444:	eddd8b2e 	vldr	d24, [sp, #184]	; 0xb8
  101448:	eddd9b30 	vldr	d25, [sp, #192]	; 0xc0
  10144c:	edddcb32 	vldr	d28, [sp, #200]	; 0xc8
  101450:	eddddb34 	vldr	d29, [sp, #208]	; 0xd0

__extension__ static __inline float32x4x2_t __attribute__ ((__always_inline__))
vuzpq_f32 (float32x4_t __a, float32x4_t __b)
{
  float32x4x2_t __rv;
  __builtin_neon_vuzpv4sf (&__rv.val[0], __a, __b);
  101454:	f3fa0164 	vuzp.32	q8, q10
  101458:	ecc30b04 	vstmia	r3, {d16-d17}
  10145c:	edc34b04 	vstr	d20, [r3, #16]
  101460:	edc35b06 	vstr	d21, [r3, #24]
}

__extension__ static __inline float32x4_t __attribute__ ((__always_inline__))
vld1q_f32 (const float32_t * __a)
{
  return (float32x4_t)__builtin_neon_vld1v4sf ((const __builtin_neon_sf *) __a);
  101464:	e59d4010 	ldr	r4, [sp, #16]
__extension__ static __inline float32x4x2_t __attribute__ ((__always_inline__))
vuzpq_f32 (float32x4_t __a, float32x4_t __b)
{
  float32x4x2_t __rv;
  __builtin_neon_vuzpv4sf (&__rv.val[0], __a, __b);
  return __rv;
  101468:	edddeb2e 	vldr	d30, [sp, #184]	; 0xb8
  10146c:	edddfb30 	vldr	d31, [sp, #192]	; 0xc0
}

__extension__ static __inline float32x4_t __attribute__ ((__always_inline__))
vld1q_f32 (const float32_t * __a)
{
  return (float32x4_t)__builtin_neon_vld1v4sf ((const __builtin_neon_sf *) __a);
  101470:	f4650a8f 	vld1.32	{d16-d17}, [r5]
__extension__ static __inline float32x4x2_t __attribute__ ((__always_inline__))
vuzpq_f32 (float32x4_t __a, float32x4_t __b)
{
  float32x4x2_t __rv;
  __builtin_neon_vuzpv4sf (&__rv.val[0], __a, __b);
  return __rv;
  101474:	edddab32 	vldr	d26, [sp, #200]	; 0xc8
  101478:	edddbb34 	vldr	d27, [sp, #208]	; 0xd0
}

__extension__ static __inline float32x4_t __attribute__ ((__always_inline__))
vmulq_f32 (float32x4_t __a, float32x4_t __b)
{
  return (float32x4_t)__builtin_neon_vmulv4sf (__a, __b, 3);
  10147c:	ed8d8b04 	vstr	d8, [sp, #16]
  101480:	ed8d9b06 	vstr	d9, [sp, #24]
  101484:	f3060d50 	vmul.f32	q0, q3, q0
}

__extension__ static __inline float32x4_t __attribute__ ((__always_inline__))
vld1q_f32 (const float32_t * __a)
{
  return (float32x4_t)__builtin_neon_vld1v4sf ((const __builtin_neon_sf *) __a);
  101488:	f4612a8f 	vld1.32	{d18-d19}, [r1]
  10148c:	f4644a8f 	vld1.32	{d20-d21}, [r4]
}

__extension__ static __inline float32x4_t __attribute__ ((__always_inline__))
vmulq_f32 (float32x4_t __a, float32x4_t __b)
{
  return (float32x4_t)__builtin_neon_vmulv4sf (__a, __b, 3);
  101490:	f3068d52 	vmul.f32	q4, q3, q1
}

__extension__ static __inline float32x4_t __attribute__ ((__always_inline__))
vld1q_f32 (const float32_t * __a)
{
  return (float32x4_t)__builtin_neon_vld1v4sf ((const __builtin_neon_sf *) __a);
  101494:	f4626a8f 	vld1.32	{d22-d23}, [r2]

__extension__ static __inline float32x4x2_t __attribute__ ((__always_inline__))
vuzpq_f32 (float32x4_t __a, float32x4_t __b)
{
  float32x4x2_t __rv;
  __builtin_neon_vuzpv4sf (&__rv.val[0], __a, __b);
  101498:	f3fa0164 	vuzp.32	q8, q10
  10149c:	ecc30b04 	vstmia	r3, {d16-d17}
  1014a0:	edc34b04 	vstr	d20, [r3, #16]
  1014a4:	edc35b06 	vstr	d21, [r3, #24]
  return __rv;
  1014a8:	eddd0b2e 	vldr	d16, [sp, #184]	; 0xb8
  1014ac:	eddd1b30 	vldr	d17, [sp, #192]	; 0xc0
  1014b0:	eddd4b32 	vldr	d20, [sp, #200]	; 0xc8
  1014b4:	eddd5b34 	vldr	d21, [sp, #208]	; 0xd0

__extension__ static __inline float32x4x2_t __attribute__ ((__always_inline__))
vuzpq_f32 (float32x4_t __a, float32x4_t __b)
{
  float32x4x2_t __rv;
  __builtin_neon_vuzpv4sf (&__rv.val[0], __a, __b);
  1014b8:	f3fa2166 	vuzp.32	q9, q11
  1014bc:	ecc32b04 	vstmia	r3, {d18-d19}
  1014c0:	edc36b04 	vstr	d22, [r3, #16]
  1014c4:	edc37b06 	vstr	d23, [r3, #24]
  return __rv;
  1014c8:	eddd6b2e 	vldr	d22, [sp, #184]	; 0xb8
  1014cc:	eddd7b30 	vldr	d23, [sp, #192]	; 0xc0
  1014d0:	eddd2b32 	vldr	d18, [sp, #200]	; 0xc8
  1014d4:	eddd3b34 	vldr	d19, [sp, #208]	; 0xd0
}

__extension__ static __inline float32x4_t __attribute__ ((__always_inline__))
vmulq_f32 (float32x4_t __a, float32x4_t __b)
{
  return (float32x4_t)__builtin_neon_vmulv4sf (__a, __b, 3);
  1014d8:	f30c6dfa 	vmul.f32	q3, q14, q13
  1014dc:	f3042d52 	vmul.f32	q1, q2, q1
  1014e0:	f34ccdfe 	vmul.f32	q14, q14, q15
  1014e4:	f3084dfe 	vmul.f32	q2, q12, q15
  1014e8:	f340edf6 	vmul.f32	q15, q8, q11
  1014ec:	f3488dfa 	vmul.f32	q12, q12, q13
  1014f0:	f3400df2 	vmul.f32	q8, q8, q9
  1014f4:	f344adf2 	vmul.f32	q13, q10, q9
}

__extension__ static __inline float32x4_t __attribute__ ((__always_inline__))
vsubq_f32 (float32x4_t __a, float32x4_t __b)
{
  return (float32x4_t)__builtin_neon_vsubv4sf (__a, __b, 3);
  1014f8:	eddd2b24 	vldr	d18, [sp, #144]	; 0x90
  1014fc:	eddd3b26 	vldr	d19, [sp, #152]	; 0x98
}

__extension__ static __inline float32x4_t __attribute__ ((__always_inline__))
vmulq_f32 (float32x4_t __a, float32x4_t __b)
{
  return (float32x4_t)__builtin_neon_vmulv4sf (__a, __b, 3);
  101500:	f3444df6 	vmul.f32	q10, q10, q11
}

__extension__ static __inline float32x4_t __attribute__ ((__always_inline__))
vaddq_f32 (float32x4_t __a, float32x4_t __b)
{
  return (float32x4_t)__builtin_neon_vaddv4sf (__a, __b, 3);
  101504:	ecdd6b04 	vldmia	sp, {d22-d23}
}

__extension__ static __inline float32x4_t __attribute__ ((__always_inline__))
vsubq_f32 (float32x4_t __a, float32x4_t __b)
{
  return (float32x4_t)__builtin_neon_vsubv4sf (__a, __b, 3);
  101508:	f222edce 	vsub.f32	q7, q9, q7
  10150c:	eddd2b04 	vldr	d18, [sp, #16]
  101510:	eddd3b06 	vldr	d19, [sp, #24]
}

__extension__ static __inline float32x4_t __attribute__ ((__always_inline__))
vaddq_f32 (float32x4_t __a, float32x4_t __b)
{
  return (float32x4_t)__builtin_neon_vaddv4sf (__a, __b, 3);
  101514:	f206cdcc 	vadd.f32	q6, q11, q6
  101518:	eddd6b20 	vldr	d22, [sp, #128]	; 0x80
  10151c:	eddd7b22 	vldr	d23, [sp, #136]	; 0x88
}

__extension__ static __inline float32x4_t __attribute__ ((__always_inline__))
vsubq_f32 (float32x4_t __a, float32x4_t __b)
{
  return (float32x4_t)__builtin_neon_vsubv4sf (__a, __b, 3);
  101520:	f2228dc8 	vsub.f32	q4, q9, q4
}

__extension__ static __inline float32x4_t __attribute__ ((__always_inline__))
vaddq_f32 (float32x4_t __a, float32x4_t __b)
{
  return (float32x4_t)__builtin_neon_vaddv4sf (__a, __b, 3);
  101524:	f24ccde8 	vadd.f32	q14, q14, q12
  101528:	eddd8b08 	vldr	d24, [sp, #32]
  10152c:	eddd9b0a 	vldr	d25, [sp, #40]	; 0x28
}

__extension__ static __inline float32x4_t __attribute__ ((__always_inline__))
vsubq_f32 (float32x4_t __a, float32x4_t __b)
{
  return (float32x4_t)__builtin_neon_vsubv4sf (__a, __b, 3);
  101530:	f26eadea 	vsub.f32	q13, q15, q13
}

__extension__ static __inline float32x4_t __attribute__ ((__always_inline__))
vaddq_f32 (float32x4_t __a, float32x4_t __b)
{
  return (float32x4_t)__builtin_neon_vaddv4sf (__a, __b, 3);
  101534:	edddeb0c 	vldr	d30, [sp, #48]	; 0x30
  101538:	edddfb0e 	vldr	d31, [sp, #56]	; 0x38
  10153c:	f2444de0 	vadd.f32	q10, q10, q8
  101540:	eddd0b14 	vldr	d16, [sp, #80]	; 0x50
  101544:	eddd1b16 	vldr	d17, [sp, #88]	; 0x58
  101548:	f2002d42 	vadd.f32	q1, q0, q1
}

__extension__ static __inline float32x4_t __attribute__ ((__always_inline__))
vsubq_f32 (float32x4_t __a, float32x4_t __b)
{
  return (float32x4_t)__builtin_neon_vsubv4sf (__a, __b, 3);
  10154c:	f2246d46 	vsub.f32	q3, q2, q3
}

__extension__ static __inline float32x4_t __attribute__ ((__always_inline__))
vaddq_f32 (float32x4_t __a, float32x4_t __b)
{
  return (float32x4_t)__builtin_neon_vaddv4sf (__a, __b, 3);
  101550:	f24c6d66 	vadd.f32	q11, q6, q11
  101554:	edcd6b20 	vstr	d22, [sp, #128]	; 0x80
  101558:	edcd7b22 	vstr	d23, [sp, #136]	; 0x88
  10155c:	f2488d68 	vadd.f32	q12, q4, q12
  101560:	ed9d8b10 	vldr	d8, [sp, #64]	; 0x40
  101564:	ed9d9b12 	vldr	d9, [sp, #72]	; 0x48
  101568:	edcd8b08 	vstr	d24, [sp, #32]
  10156c:	edcd9b0a 	vstr	d25, [sp, #40]	; 0x28
  101570:	f242ed6e 	vadd.f32	q15, q1, q15
  101574:	edcdeb0c 	vstr	d30, [sp, #48]	; 0x30
  101578:	edcdfb0e 	vstr	d31, [sp, #56]	; 0x38
  10157c:	f2068d48 	vadd.f32	q4, q3, q4
  101580:	ed8d8b10 	vstr	d8, [sp, #64]	; 0x40
  101584:	ed8d9b12 	vstr	d9, [sp, #72]	; 0x48
  101588:	f24c0de0 	vadd.f32	q8, q14, q8
  10158c:	edcd0b14 	vstr	d16, [sp, #80]	; 0x50
  101590:	edcd1b16 	vstr	d17, [sp, #88]	; 0x58
  101594:	eddd2b18 	vldr	d18, [sp, #96]	; 0x60
  101598:	eddd3b1a 	vldr	d19, [sp, #104]	; 0x68
  10159c:	eddd6b1c 	vldr	d22, [sp, #112]	; 0x70
  1015a0:	eddd7b1e 	vldr	d23, [sp, #120]	; 0x78
  1015a4:	f24a2de2 	vadd.f32	q9, q13, q9
  1015a8:	edcd2b18 	vstr	d18, [sp, #96]	; 0x60
  1015ac:	edcd3b1a 	vstr	d19, [sp, #104]	; 0x68
  1015b0:	f2446de6 	vadd.f32	q11, q10, q11
  1015b4:	edcd6b1c 	vstr	d22, [sp, #112]	; 0x70
  1015b8:	edcd7b1e 	vstr	d23, [sp, #120]	; 0x78
  1015bc:	f20ead4a 	vadd.f32	q5, q7, q5
  1015c0:	1affff53 	bne	101314 <arm_cmplx_mult_cmplx_f32_dot+0x80>
 * @param[out]  *pDst  points to the output vector     
 * @param[in]  numSamples number of complex samples in each vector     
 * @return none.     
 */
// __INLINE
void arm_cmplx_mult_cmplx_f32_dot(
  1015c4:	e28d40ac 	add	r4, sp, #172	; 0xac
  1015c8:	f22ac15a 	vorr	q6, q5, q5
  1015cc:	e89400d0 	ldm	r4, {r4, r6, r7}
  1015d0:	ed9deb20 	vldr	d14, [sp, #128]	; 0x80
  1015d4:	ed9dfb22 	vldr	d15, [sp, #136]	; 0x88
  1015d8:	e1a03384 	lsl	r3, r4, #7
  1015dc:	e0866003 	add	r6, r6, r3
  1015e0:	e0877003 	add	r7, r7, r3
    /* Decrement the numSamples loop counter */
    blkCnt--;
  }

  blkCnt = numSamples & 15u;
  blkCnt = blkCnt >> 2u;
  1015e4:	e59d30a4 	ldr	r3, [sp, #164]	; 0xa4
  1015e8:	e7e15153 	ubfx	r5, r3, #2, #2

  /* If the blockSize is not a multiple of 16, compute remaining output samples.     
   ** Compute multiple of 4 samples at a time in second loop.  
   ** and remaining 1 to 3 samples in third loop. */
  while(blkCnt > 0u)
  1015ec:	e3550000 	cmp	r5, #0
  1015f0:	0a000028 	beq	101698 <arm_cmplx_mult_cmplx_f32_dot+0x404>
  1015f4:	e1a04005 	mov	r4, r5
  1015f8:	e1a0c007 	mov	ip, r7
  1015fc:	e1a00006 	mov	r0, r6
  101600:	e28d30b8 	add	r3, sp, #184	; 0xb8
}

__extension__ static __inline float32x4_t __attribute__ ((__always_inline__))
vld1q_f32 (const float32_t * __a)
{
  return (float32x4_t)__builtin_neon_vld1v4sf ((const __builtin_neon_sf *) __a);
  101604:	e1a01000 	mov	r1, r0
  101608:	e1a0200c 	mov	r2, ip
  10160c:	e2544001 	subs	r4, r4, #1
 * @param[out]  *pDst  points to the output vector     
 * @param[in]  numSamples number of complex samples in each vector     
 * @return none.     
 */
// __INLINE
void arm_cmplx_mult_cmplx_f32_dot(
  101610:	e2800020 	add	r0, r0, #32
  101614:	f4610a8d 	vld1.32	{d16-d17}, [r1]!
  101618:	e28cc020 	add	ip, ip, #32
  10161c:	f4622a8d 	vld1.32	{d18-d19}, [r2]!
  101620:	f4614a8f 	vld1.32	{d20-d21}, [r1]
  101624:	f4626a8f 	vld1.32	{d22-d23}, [r2]

__extension__ static __inline float32x4x2_t __attribute__ ((__always_inline__))
vuzpq_f32 (float32x4_t __a, float32x4_t __b)
{
  float32x4x2_t __rv;
  __builtin_neon_vuzpv4sf (&__rv.val[0], __a, __b);
  101628:	f3fa0164 	vuzp.32	q8, q10
  10162c:	ecc30b04 	vstmia	r3, {d16-d17}
  101630:	edc34b04 	vstr	d20, [r3, #16]
  101634:	edc35b06 	vstr	d21, [r3, #24]
  return __rv;
  101638:	eddd0b2e 	vldr	d16, [sp, #184]	; 0xb8
  10163c:	eddd1b30 	vldr	d17, [sp, #192]	; 0xc0
  101640:	eddd4b32 	vldr	d20, [sp, #200]	; 0xc8
  101644:	eddd5b34 	vldr	d21, [sp, #208]	; 0xd0

__extension__ static __inline float32x4x2_t __attribute__ ((__always_inline__))
vuzpq_f32 (float32x4_t __a, float32x4_t __b)
{
  float32x4x2_t __rv;
  __builtin_neon_vuzpv4sf (&__rv.val[0], __a, __b);
  101648:	f3fa2166 	vuzp.32	q9, q11
  10164c:	ecc32b04 	vstmia	r3, {d18-d19}
  101650:	edc36b04 	vstr	d22, [r3, #16]
  101654:	edc37b06 	vstr	d23, [r3, #24]
  return __rv;
  101658:	eddd6b2e 	vldr	d22, [sp, #184]	; 0xb8
  10165c:	eddd7b30 	vldr	d23, [sp, #192]	; 0xc0
  101660:	eddd2b32 	vldr	d18, [sp, #200]	; 0xc8
  101664:	eddd3b34 	vldr	d19, [sp, #208]	; 0xd0
}

__extension__ static __inline float32x4_t __attribute__ ((__always_inline__))
vmulq_f32 (float32x4_t __a, float32x4_t __b)
{
  return (float32x4_t)__builtin_neon_vmulv4sf (__a, __b, 3);
  101668:	f340adf6 	vmul.f32	q13, q8, q11
  10166c:	f3448df2 	vmul.f32	q12, q10, q9
  101670:	f3400df2 	vmul.f32	q8, q8, q9
  101674:	f3444df6 	vmul.f32	q10, q10, q11
}

__extension__ static __inline float32x4_t __attribute__ ((__always_inline__))
vsubq_f32 (float32x4_t __a, float32x4_t __b)
{
  return (float32x4_t)__builtin_neon_vsubv4sf (__a, __b, 3);
  101678:	f26a8de8 	vsub.f32	q12, q13, q12
}

__extension__ static __inline float32x4_t __attribute__ ((__always_inline__))
vaddq_f32 (float32x4_t __a, float32x4_t __b)
{
  return (float32x4_t)__builtin_neon_vaddv4sf (__a, __b, 3);
  10167c:	f2440de0 	vadd.f32	q8, q10, q8
  101680:	f208cdcc 	vadd.f32	q6, q12, q6
  101684:	f200edce 	vadd.f32	q7, q8, q7
  blkCnt = blkCnt >> 2u;

  /* If the blockSize is not a multiple of 16, compute remaining output samples.     
   ** Compute multiple of 4 samples at a time in second loop.  
   ** and remaining 1 to 3 samples in third loop. */
  while(blkCnt > 0u)
  101688:	1affffdd 	bne	101604 <arm_cmplx_mult_cmplx_f32_dot+0x370>
 * @param[out]  *pDst  points to the output vector     
 * @param[in]  numSamples number of complex samples in each vector     
 * @return none.     
 */
// __INLINE
void arm_cmplx_mult_cmplx_f32_dot(
  10168c:	e1a05285 	lsl	r5, r5, #5
  101690:	e0866005 	add	r6, r6, r5
  101694:	e0877005 	add	r7, r7, r5

  /* If the blockSize is not a multiple of 4, compute any remaining output samples here.     
   ** No intrinsics is used. */
  sum_real =0;
  sum_img =0;
  while(blkCnt > 0u)
  101698:	e59d40a4 	ldr	r4, [sp, #164]	; 0xa4
    c = *pSrcB++;
    d = *pSrcB++;

    /* store the result in the destination buffer. */
    sum_real += ((a * c) - (b * d));
    sum_img += ((a * d) + (b * c));
  10169c:	ed9f5a41 	vldr	s10, [pc, #260]	; 1017a8 <arm_cmplx_mult_cmplx_f32_dot+0x514>

  /* If the blockSize is not a multiple of 4, compute any remaining output samples here.     
   ** No intrinsics is used. */
  sum_real =0;
  sum_img =0;
  while(blkCnt > 0u)
  1016a0:	e2143003 	ands	r3, r4, #3
    b = *pSrcA++;
    c = *pSrcB++;
    d = *pSrcB++;

    /* store the result in the destination buffer. */
    sum_real += ((a * c) - (b * d));
  1016a4:	eef04a45 	vmov.f32	s9, s10

  /* If the blockSize is not a multiple of 4, compute any remaining output samples here.     
   ** No intrinsics is used. */
  sum_real =0;
  sum_img =0;
  while(blkCnt > 0u)
  1016a8:	0a00000d 	beq	1016e4 <arm_cmplx_mult_cmplx_f32_dot+0x450>
 * @param[out]  *pDst  points to the output vector     
 * @param[in]  numSamples number of complex samples in each vector     
 * @return none.     
 */
// __INLINE
void arm_cmplx_mult_cmplx_f32_dot(
  1016ac:	e2877008 	add	r7, r7, #8
  sum_img =0;
  while(blkCnt > 0u)
  {
    /* C[2 * i] = A[2 * i] * B[2 * i] - A[2 * i + 1] * B[2 * i + 1].  */
    /* C[2 * i + 1] = A[2 * i] * B[2 * i + 1] + A[2 * i + 1] * B[2 * i].  */
    a = *pSrcA++;
  1016b0:	edd65a00 	vldr	s11, [r6]
    b = *pSrcA++;
  1016b4:	ed966a01 	vldr	s12, [r6, #4]

  /* If the blockSize is not a multiple of 4, compute any remaining output samples here.     
   ** No intrinsics is used. */
  sum_real =0;
  sum_img =0;
  while(blkCnt > 0u)
  1016b8:	e2533001 	subs	r3, r3, #1
    /* C[2 * i] = A[2 * i] * B[2 * i] - A[2 * i + 1] * B[2 * i + 1].  */
    /* C[2 * i + 1] = A[2 * i] * B[2 * i + 1] + A[2 * i + 1] * B[2 * i].  */
    a = *pSrcA++;
    b = *pSrcA++;
    c = *pSrcB++;
    d = *pSrcB++;
  1016bc:	ed577a01 	vldr	s15, [r7, #-4]
 * @param[out]  *pDst  points to the output vector     
 * @param[in]  numSamples number of complex samples in each vector     
 * @return none.     
 */
// __INLINE
void arm_cmplx_mult_cmplx_f32_dot(
  1016c0:	e2866008 	add	r6, r6, #8
  {
    /* C[2 * i] = A[2 * i] * B[2 * i] - A[2 * i + 1] * B[2 * i + 1].  */
    /* C[2 * i + 1] = A[2 * i] * B[2 * i + 1] + A[2 * i + 1] * B[2 * i].  */
    a = *pSrcA++;
    b = *pSrcA++;
    c = *pSrcB++;
  1016c4:	ed576a02 	vldr	s13, [r7, #-8]
    d = *pSrcB++;

    /* store the result in the destination buffer. */
    sum_real += ((a * c) - (b * d));
  1016c8:	ee267a27 	vmul.f32	s14, s12, s15
    sum_img += ((a * d) + (b * c));
  1016cc:	ee657aa7 	vmul.f32	s15, s11, s15
    b = *pSrcA++;
    c = *pSrcB++;
    d = *pSrcB++;

    /* store the result in the destination buffer. */
    sum_real += ((a * c) - (b * d));
  1016d0:	ee157aa6 	vnmls.f32	s14, s11, s13
    sum_img += ((a * d) + (b * c));
  1016d4:	ee467a26 	vmla.f32	s15, s12, s13
    b = *pSrcA++;
    c = *pSrcB++;
    d = *pSrcB++;

    /* store the result in the destination buffer. */
    sum_real += ((a * c) - (b * d));
  1016d8:	ee744a87 	vadd.f32	s9, s9, s14
    sum_img += ((a * d) + (b * c));
  1016dc:	ee355a27 	vadd.f32	s10, s10, s15

  /* If the blockSize is not a multiple of 4, compute any remaining output samples here.     
   ** No intrinsics is used. */
  sum_real =0;
  sum_img =0;
  while(blkCnt > 0u)
  1016e0:	1afffff1 	bne	1016ac <arm_cmplx_mult_cmplx_f32_dot+0x418>
  1016e4:	ed9d8b08 	vldr	d8, [sp, #32]
  1016e8:	ed9d9b0a 	vldr	d9, [sp, #40]	; 0x28
  1016ec:	eddd0b0c 	vldr	d16, [sp, #48]	; 0x30
  1016f0:	eddd1b0e 	vldr	d17, [sp, #56]	; 0x38
  1016f4:	f24c6d48 	vadd.f32	q11, q6, q4
  1016f8:	eddd8b10 	vldr	d24, [sp, #64]	; 0x40
  1016fc:	eddd9b12 	vldr	d25, [sp, #72]	; 0x48
  101700:	f24e4d60 	vadd.f32	q10, q7, q8
  101704:	edddab18 	vldr	d26, [sp, #96]	; 0x60
  101708:	edddbb1a 	vldr	d27, [sp, #104]	; 0x68
  10170c:	edddeb14 	vldr	d30, [sp, #80]	; 0x50
  101710:	edddfb16 	vldr	d31, [sp, #88]	; 0x58
  101714:	ed9d8b1c 	vldr	d8, [sp, #112]	; 0x70
  101718:	ed9d9b1e 	vldr	d9, [sp, #120]	; 0x78
  10171c:	f2482dea 	vadd.f32	q9, q12, q13
  101720:	f24e0dc8 	vadd.f32	q8, q15, q4
  101724:	f2462de2 	vadd.f32	q9, q11, q9
  101728:	f2440de0 	vadd.f32	q8, q10, q8
}

__extension__ static __inline float32_t __attribute__ ((__always_inline__))
vgetq_lane_f32 (float32x4_t __a, const int __b)
{
  return (float32_t)__builtin_neon_vget_lanev4sf (__a, __b, 3);
  10172c:	ee121b90 	vmov.32	r1, d18[0]
  101730:	ee103b90 	vmov.32	r3, d16[0]
  101734:	ee322b90 	vmov.32	r2, d18[1]
  101738:	ee304b90 	vmov.32	r4, d16[1]
  10173c:	ee071a10 	vmov	s14, r1
  101740:	ee073a90 	vmov	s15, r3
  101744:	ee062a10 	vmov	s12, r2
  101748:	ee064a90 	vmov	s13, r4
	acc2.val[0] = vaddq_f32(acc3.val[0], acc4.val[0]);
	acc2.val[1] = vaddq_f32(acc3.val[1], acc4.val[1]);
	acc1.val[0] = vaddq_f32(acc1.val[0], acc2.val[0]);
	acc1.val[1] = vaddq_f32(acc1.val[1], acc2.val[1]);

	sum_real += vgetq_lane_f32(acc1.val[0], 0) + vgetq_lane_f32(acc1.val[0], 1)
  10174c:	ee367a07 	vadd.f32	s14, s12, s14
		+ vgetq_lane_f32(acc1.val[0], 2) + vgetq_lane_f32(acc1.val[0], 3);
	sum_img += vgetq_lane_f32(acc1.val[1], 0) + vgetq_lane_f32(acc1.val[1], 1)
  101750:	ee767aa7 	vadd.f32	s15, s13, s15
  101754:	ee131b90 	vmov.32	r1, d19[0]
  101758:	ee112b90 	vmov.32	r2, d17[0]
  10175c:	ee061a10 	vmov	s12, r1
  101760:	ee062a90 	vmov	s13, r2
	acc2.val[1] = vaddq_f32(acc3.val[1], acc4.val[1]);
	acc1.val[0] = vaddq_f32(acc1.val[0], acc2.val[0]);
	acc1.val[1] = vaddq_f32(acc1.val[1], acc2.val[1]);

	sum_real += vgetq_lane_f32(acc1.val[0], 0) + vgetq_lane_f32(acc1.val[0], 1)
		+ vgetq_lane_f32(acc1.val[0], 2) + vgetq_lane_f32(acc1.val[0], 3);
  101764:	ee377a06 	vadd.f32	s14, s14, s12
	sum_img += vgetq_lane_f32(acc1.val[1], 0) + vgetq_lane_f32(acc1.val[1], 1)
		+ vgetq_lane_f32(acc1.val[1], 2) + vgetq_lane_f32(acc1.val[1], 3);
  101768:	ee777aa6 	vadd.f32	s15, s15, s13
  10176c:	ee333b90 	vmov.32	r3, d19[1]
  101770:	ee314b90 	vmov.32	r4, d17[1]
  101774:	ee063a10 	vmov	s12, r3
  101778:	ee064a90 	vmov	s13, r4
	acc2.val[1] = vaddq_f32(acc3.val[1], acc4.val[1]);
	acc1.val[0] = vaddq_f32(acc1.val[0], acc2.val[0]);
	acc1.val[1] = vaddq_f32(acc1.val[1], acc2.val[1]);

	sum_real += vgetq_lane_f32(acc1.val[0], 0) + vgetq_lane_f32(acc1.val[0], 1)
		+ vgetq_lane_f32(acc1.val[0], 2) + vgetq_lane_f32(acc1.val[0], 3);
  10177c:	ee377a06 	vadd.f32	s14, s14, s12
	sum_img += vgetq_lane_f32(acc1.val[1], 0) + vgetq_lane_f32(acc1.val[1], 1)
		+ vgetq_lane_f32(acc1.val[1], 2) + vgetq_lane_f32(acc1.val[1], 3);
  101780:	ee777aa6 	vadd.f32	s15, s15, s13

	*pDst++=sum_real;
  101784:	e59d10a8 	ldr	r1, [sp, #168]	; 0xa8
	acc2.val[0] = vaddq_f32(acc3.val[0], acc4.val[0]);
	acc2.val[1] = vaddq_f32(acc3.val[1], acc4.val[1]);
	acc1.val[0] = vaddq_f32(acc1.val[0], acc2.val[0]);
	acc1.val[1] = vaddq_f32(acc1.val[1], acc2.val[1]);

	sum_real += vgetq_lane_f32(acc1.val[0], 0) + vgetq_lane_f32(acc1.val[0], 1)
  101788:	ee774a24 	vadd.f32	s9, s14, s9
		+ vgetq_lane_f32(acc1.val[0], 2) + vgetq_lane_f32(acc1.val[0], 3);
	sum_img += vgetq_lane_f32(acc1.val[1], 0) + vgetq_lane_f32(acc1.val[1], 1)
  10178c:	ee375a85 	vadd.f32	s10, s15, s10
		+ vgetq_lane_f32(acc1.val[1], 2) + vgetq_lane_f32(acc1.val[1], 3);

	*pDst++=sum_real;
  101790:	edc14a00 	vstr	s9, [r1]
	*pDst++=sum_img;
  101794:	ed815a01 	vstr	s10, [r1, #4]

}
  101798:	e28dd0d8 	add	sp, sp, #216	; 0xd8
  10179c:	ecbd8b10 	vpop	{d8-d15}
  1017a0:	e8bd0ff0 	pop	{r4, r5, r6, r7, r8, r9, sl, fp}
  1017a4:	e12fff1e 	bx	lr
  1017a8:	00000000 	.word	0x00000000

001017ac <sp_cmplx_vector_dot_mul_dsp_concept>:
/*

*/

void  sp_cmplx_vector_dot_mul_dsp_concept( unsigned int ui_vector_length )
{
  1017ac:	e1a03000 	mov	r3, r0

	arm_cmplx_mult_cmplx_f32_dot(gf_array_src_a, gf_array_src_b, gf_sum_dsp_concept, ui_vector_length );
  1017b0:	e3051000 	movw	r1, #20480	; 0x5000
  1017b4:	e3010000 	movw	r0, #4096	; 0x1000
  1017b8:	e3092000 	movw	r2, #36864	; 0x9000
  1017bc:	e3400000 	movt	r0, #0
  1017c0:	e3401000 	movt	r1, #0
  1017c4:	e3402000 	movt	r2, #0
  1017c8:	eafffeb1 	b	101294 <arm_cmplx_mult_cmplx_f32_dot>

001017cc <arm_cmplx_mult_cmplx_f32_dot2>:
 * @return none.     
 */
// __INLINE
void arm_cmplx_mult_cmplx_f32_dot2(
  uint32_t numSamples )
{
  1017cc:	e92d0ff0 	push	{r4, r5, r6, r7, r8, r9, sl, fp}
  1017d0:	ed2d8b10 	vpush	{d8-d15}
  1017d4:	e24dd0d0 	sub	sp, sp, #208	; 0xd0
  1017d8:	e58d00a8 	str	r0, [sp, #168]	; 0xa8
  acc4.val[1] = vdupq_n_f32(0.0f);

  /* Loop over blockSize number of values */
  blkCnt = numSamples >> 4u;

  while(blkCnt > 0u)
  1017dc:	e1b00220 	lsrs	r0, r0, #4
}

__extension__ static __inline float32x4_t __attribute__ ((__always_inline__))
vdupq_n_f32 (float32_t __a)
{
  return (float32x4_t)__builtin_neon_vdup_nv4sf ((__builtin_neon_sf) __a);
  1017e0:	f280c050 	vmov.i32	q6, #0	; 0x00000000
  1017e4:	ed8dcb0a 	vstr	d12, [sp, #40]	; 0x28
  1017e8:	ed8ddb0c 	vstr	d13, [sp, #48]	; 0x30
  1017ec:	e58d00ac 	str	r0, [sp, #172]	; 0xac
  1017f0:	ed8dcb0e 	vstr	d12, [sp, #56]	; 0x38
  1017f4:	ed8ddb10 	vstr	d13, [sp, #64]	; 0x40
  1017f8:	f22ce15c 	vorr	q7, q6, q6
  1017fc:	ed8dcb12 	vstr	d12, [sp, #72]	; 0x48
  101800:	ed8ddb14 	vstr	d13, [sp, #80]	; 0x50
  101804:	ed8dcb16 	vstr	d12, [sp, #88]	; 0x58
  101808:	ed8ddb18 	vstr	d13, [sp, #96]	; 0x60
  10180c:	ed8dcb1a 	vstr	d12, [sp, #104]	; 0x68
  101810:	ed8ddb1c 	vstr	d13, [sp, #112]	; 0x70
  101814:	ed8dcb1e 	vstr	d12, [sp, #120]	; 0x78
  101818:	ed8ddb20 	vstr	d13, [sp, #128]	; 0x80
  10181c:	0a00012f 	beq	101ce0 <arm_cmplx_mult_cmplx_f32_dot2+0x514>
  101820:	e59f14d0 	ldr	r1, [pc, #1232]	; 101cf8 <arm_cmplx_mult_cmplx_f32_dot2+0x52c>
  101824:	e28d30b0 	add	r3, sp, #176	; 0xb0
  101828:	e59f24cc 	ldr	r2, [pc, #1228]	; 101cfc <arm_cmplx_mult_cmplx_f32_dot2+0x530>
  10182c:	ed8dcb22 	vstr	d12, [sp, #136]	; 0x88
  101830:	ed8ddb24 	vstr	d13, [sp, #144]	; 0x90
  101834:	f22ca15c 	vorr	q5, q6, q6
  101838:	e58d0024 	str	r0, [sp, #36]	; 0x24
  10183c:	e59d8024 	ldr	r8, [sp, #36]	; 0x24
}

__extension__ static __inline float32x4_t __attribute__ ((__always_inline__))
vld1q_f32 (const float32_t * __a)
{
  return (float32x4_t)__builtin_neon_vld1v4sf ((const __builtin_neon_sf *) __a);
  101840:	e1a0c001 	mov	ip, r1
  101844:	e2415010 	sub	r5, r1, #16
  101848:	e1a00002 	mov	r0, r2
  10184c:	e2424010 	sub	r4, r2, #16
  101850:	f46c6a8d 	vld1.32	{d22-d23}, [ip]!
  101854:	e281b020 	add	fp, r1, #32
  101858:	e2829020 	add	r9, r2, #32
  10185c:	f4652a8f 	vld1.32	{d18-d19}, [r5]
  101860:	e2588001 	subs	r8, r8, #1
  101864:	e2825040 	add	r5, r2, #64	; 0x40
  101868:	e58d8024 	str	r8, [sp, #36]	; 0x24
  10186c:	f4604a8d 	vld1.32	{d20-d21}, [r0]!
  101870:	e281a030 	add	sl, r1, #48	; 0x30
  101874:	e58d5000 	str	r5, [sp]
  101878:	e2817050 	add	r7, r1, #80	; 0x50
  10187c:	f4640a8f 	vld1.32	{d16-d17}, [r4]
  101880:	e2816060 	add	r6, r1, #96	; 0x60
  101884:	e2825050 	add	r5, r2, #80	; 0x50
  101888:	e2824060 	add	r4, r2, #96	; 0x60

__extension__ static __inline float32x4x2_t __attribute__ ((__always_inline__))
vuzpq_f32 (float32x4_t __a, float32x4_t __b)
{
  float32x4x2_t __rv;
  __builtin_neon_vuzpv4sf (&__rv.val[0], __a, __b);
  10188c:	f3fa2166 	vuzp.32	q9, q11
  101890:	ecc32b04 	vstmia	r3, {d18-d19}
  101894:	edc36b04 	vstr	d22, [r3, #16]
  101898:	edc37b06 	vstr	d23, [r3, #24]
  return __rv;
  10189c:	eddd2b2c 	vldr	d18, [sp, #176]	; 0xb0
  1018a0:	eddd3b2e 	vldr	d19, [sp, #184]	; 0xb8
  1018a4:	edddab30 	vldr	d26, [sp, #192]	; 0xc0
  1018a8:	edddbb32 	vldr	d27, [sp, #200]	; 0xc8
}

__extension__ static __inline float32x4_t __attribute__ ((__always_inline__))
vld1q_f32 (const float32_t * __a)
{
  return (float32x4_t)__builtin_neon_vld1v4sf ((const __builtin_neon_sf *) __a);
  1018ac:	f46c8a8f 	vld1.32	{d24-d25}, [ip]
  1018b0:	f46bea8f 	vld1.32	{d30-d31}, [fp]

__extension__ static __inline float32x4x2_t __attribute__ ((__always_inline__))
vuzpq_f32 (float32x4_t __a, float32x4_t __b)
{
  float32x4x2_t __rv;
  __builtin_neon_vuzpv4sf (&__rv.val[0], __a, __b);
  1018b4:	f3fa0164 	vuzp.32	q8, q10
  1018b8:	ecc30b04 	vstmia	r3, {d16-d17}
  1018bc:	edc34b04 	vstr	d20, [r3, #16]
  1018c0:	edc35b06 	vstr	d21, [r3, #24]
  return __rv;
  1018c4:	edddcb2c 	vldr	d28, [sp, #176]	; 0xb0
  1018c8:	eddddb2e 	vldr	d29, [sp, #184]	; 0xb8
  1018cc:	ed9dcb30 	vldr	d12, [sp, #192]	; 0xc0
  1018d0:	ed9ddb32 	vldr	d13, [sp, #200]	; 0xc8
}

__extension__ static __inline float32x4_t __attribute__ ((__always_inline__))
vld1q_f32 (const float32_t * __a)
{
  return (float32x4_t)__builtin_neon_vld1v4sf ((const __builtin_neon_sf *) __a);
  1018d4:	f4600a8f 	vld1.32	{d16-d17}, [r0]
  1018d8:	e2810040 	add	r0, r1, #64	; 0x40
}

__extension__ static __inline float32x4_t __attribute__ ((__always_inline__))
vmulq_f32 (float32x4_t __a, float32x4_t __b)
{
  return (float32x4_t)__builtin_neon_vmulv4sf (__a, __b, 3);
  1018dc:	f3028dfc 	vmul.f32	q4, q9, q14
  1018e0:	ed8d8b26 	vstr	d8, [sp, #152]	; 0x98
  1018e4:	ed8d9b28 	vstr	d9, [sp, #160]	; 0xa0
}

__extension__ static __inline float32x4_t __attribute__ ((__always_inline__))
vld1q_f32 (const float32_t * __a)
{
  return (float32x4_t)__builtin_neon_vld1v4sf ((const __builtin_neon_sf *) __a);
  1018e8:	f4694a8f 	vld1.32	{d20-d21}, [r9]
  1018ec:	e2811080 	add	r1, r1, #128	; 0x80
  1018f0:	f46a6a8f 	vld1.32	{d22-d23}, [sl]
}

__extension__ static __inline float32x4_t __attribute__ ((__always_inline__))
vmulq_f32 (float32x4_t __a, float32x4_t __b)
{
  return (float32x4_t)__builtin_neon_vmulv4sf (__a, __b, 3);
  1018f4:	f30aeddc 	vmul.f32	q7, q13, q6
  1018f8:	f302cddc 	vmul.f32	q6, q9, q6

__extension__ static __inline float32x4x2_t __attribute__ ((__always_inline__))
vuzpq_f32 (float32x4_t __a, float32x4_t __b)
{
  float32x4x2_t __rv;
  __builtin_neon_vuzpv4sf (&__rv.val[0], __a, __b);
  1018fc:	f3fa816e 	vuzp.32	q12, q15
  101900:	edc3eb04 	vstr	d30, [r3, #16]
  101904:	edc3fb06 	vstr	d31, [r3, #24]
  101908:	ecc38b04 	vstmia	r3, {d24-d25}
  return __rv;
  10190c:	ed9d6b2c 	vldr	d6, [sp, #176]	; 0xb0
  101910:	ed9d7b2e 	vldr	d7, [sp, #184]	; 0xb8
  101914:	ed9d2b30 	vldr	d2, [sp, #192]	; 0xc0
  101918:	ed9d3b32 	vldr	d3, [sp, #200]	; 0xc8
}

__extension__ static __inline float32x4_t __attribute__ ((__always_inline__))
vld1q_f32 (const float32_t * __a)
{
  return (float32x4_t)__builtin_neon_vld1v4sf ((const __builtin_neon_sf *) __a);
  10191c:	f4608a8f 	vld1.32	{d24-d25}, [r0]
  101920:	e2820030 	add	r0, r2, #48	; 0x30
}

__extension__ static __inline float32x4_t __attribute__ ((__always_inline__))
vmulq_f32 (float32x4_t __a, float32x4_t __b)
{
  return (float32x4_t)__builtin_neon_vmulv4sf (__a, __b, 3);
  101924:	f34aedfc 	vmul.f32	q15, q13, q14
}

__extension__ static __inline float32x4_t __attribute__ ((__always_inline__))
vld1q_f32 (const float32_t * __a)
{
  return (float32x4_t)__builtin_neon_vld1v4sf ((const __builtin_neon_sf *) __a);
  101928:	e2822080 	add	r2, r2, #128	; 0x80

__extension__ static __inline float32x4x2_t __attribute__ ((__always_inline__))
vuzpq_f32 (float32x4_t __a, float32x4_t __b)
{
  float32x4x2_t __rv;
  __builtin_neon_vuzpv4sf (&__rv.val[0], __a, __b);
  10192c:	f3fa0164 	vuzp.32	q8, q10
  101930:	ecc30b04 	vstmia	r3, {d16-d17}
  101934:	edc34b04 	vstr	d20, [r3, #16]
  101938:	edc35b06 	vstr	d21, [r3, #24]
}

__extension__ static __inline float32x4_t __attribute__ ((__always_inline__))
vld1q_f32 (const float32_t * __a)
{
  return (float32x4_t)__builtin_neon_vld1v4sf ((const __builtin_neon_sf *) __a);
  10193c:	e59d8000 	ldr	r8, [sp]
__extension__ static __inline float32x4x2_t __attribute__ ((__always_inline__))
vuzpq_f32 (float32x4_t __a, float32x4_t __b)
{
  float32x4x2_t __rv;
  __builtin_neon_vuzpv4sf (&__rv.val[0], __a, __b);
  return __rv;
  101940:	ed9d0b2c 	vldr	d0, [sp, #176]	; 0xb0
  101944:	ed9d1b2e 	vldr	d1, [sp, #184]	; 0xb8
}

__extension__ static __inline float32x4_t __attribute__ ((__always_inline__))
vld1q_f32 (const float32_t * __a)
{
  return (float32x4_t)__builtin_neon_vld1v4sf ((const __builtin_neon_sf *) __a);
  101948:	f4600a8f 	vld1.32	{d16-d17}, [r0]
__extension__ static __inline float32x4x2_t __attribute__ ((__always_inline__))
vuzpq_f32 (float32x4_t __a, float32x4_t __b)
{
  float32x4x2_t __rv;
  __builtin_neon_vuzpv4sf (&__rv.val[0], __a, __b);
  return __rv;
  10194c:	ed9d4b30 	vldr	d4, [sp, #192]	; 0xc0
  101950:	ed9d5b32 	vldr	d5, [sp, #200]	; 0xc8
}

__extension__ static __inline float32x4_t __attribute__ ((__always_inline__))
vmulq_f32 (float32x4_t __a, float32x4_t __b)
{
  return (float32x4_t)__builtin_neon_vmulv4sf (__a, __b, 3);
  101954:	f3068d50 	vmul.f32	q4, q3, q0
  101958:	f3066d54 	vmul.f32	q3, q3, q2
}

__extension__ static __inline float32x4_t __attribute__ ((__always_inline__))
vld1q_f32 (const float32_t * __a)
{
  return (float32x4_t)__builtin_neon_vld1v4sf ((const __builtin_neon_sf *) __a);
  10195c:	f4684a8f 	vld1.32	{d20-d21}, [r8]
}

__extension__ static __inline float32x4_t __attribute__ ((__always_inline__))
vmulq_f32 (float32x4_t __a, float32x4_t __b)
{
  return (float32x4_t)__builtin_neon_vmulv4sf (__a, __b, 3);
  101960:	eccdeb04 	vstmia	sp, {d30-d31}

__extension__ static __inline float32x4x2_t __attribute__ ((__always_inline__))
vuzpq_f32 (float32x4_t __a, float32x4_t __b)
{
  float32x4x2_t __rv;
  __builtin_neon_vuzpv4sf (&__rv.val[0], __a, __b);
  101964:	f3fa6168 	vuzp.32	q11, q12
  101968:	ecc36b04 	vstmia	r3, {d22-d23}
  10196c:	edc38b04 	vstr	d24, [r3, #16]
  101970:	edc39b06 	vstr	d25, [r3, #24]
  return __rv;
  101974:	eddd8b2c 	vldr	d24, [sp, #176]	; 0xb0
  101978:	eddd9b2e 	vldr	d25, [sp, #184]	; 0xb8
  10197c:	edddcb30 	vldr	d28, [sp, #192]	; 0xc0
  101980:	eddddb32 	vldr	d29, [sp, #200]	; 0xc8

__extension__ static __inline float32x4x2_t __attribute__ ((__always_inline__))
vuzpq_f32 (float32x4_t __a, float32x4_t __b)
{
  float32x4x2_t __rv;
  __builtin_neon_vuzpv4sf (&__rv.val[0], __a, __b);
  101984:	f3fa0164 	vuzp.32	q8, q10
  101988:	ecc30b04 	vstmia	r3, {d16-d17}
  10198c:	edc34b04 	vstr	d20, [r3, #16]
  101990:	edc35b06 	vstr	d21, [r3, #24]
}

__extension__ static __inline float32x4_t __attribute__ ((__always_inline__))
vmulq_f32 (float32x4_t __a, float32x4_t __b)
{
  return (float32x4_t)__builtin_neon_vmulv4sf (__a, __b, 3);
  101994:	ed8d8b04 	vstr	d8, [sp, #16]
  101998:	ed8d9b06 	vstr	d9, [sp, #24]
__extension__ static __inline float32x4x2_t __attribute__ ((__always_inline__))
vuzpq_f32 (float32x4_t __a, float32x4_t __b)
{
  float32x4x2_t __rv;
  __builtin_neon_vuzpv4sf (&__rv.val[0], __a, __b);
  return __rv;
  10199c:	edddeb2c 	vldr	d30, [sp, #176]	; 0xb0
  1019a0:	edddfb2e 	vldr	d31, [sp, #184]	; 0xb8
  1019a4:	edddab30 	vldr	d26, [sp, #192]	; 0xc0
  1019a8:	edddbb32 	vldr	d27, [sp, #200]	; 0xc8
}

__extension__ static __inline float32x4_t __attribute__ ((__always_inline__))
vld1q_f32 (const float32_t * __a)
{
  return (float32x4_t)__builtin_neon_vld1v4sf ((const __builtin_neon_sf *) __a);
  1019ac:	f4670a8f 	vld1.32	{d16-d17}, [r7]
}

__extension__ static __inline float32x4_t __attribute__ ((__always_inline__))
vmulq_f32 (float32x4_t __a, float32x4_t __b)
{
  return (float32x4_t)__builtin_neon_vmulv4sf (__a, __b, 3);
  1019b0:	f3028d54 	vmul.f32	q4, q1, q2
}

__extension__ static __inline float32x4_t __attribute__ ((__always_inline__))
vld1q_f32 (const float32_t * __a)
{
  return (float32x4_t)__builtin_neon_vld1v4sf ((const __builtin_neon_sf *) __a);
  1019b4:	f4664a8f 	vld1.32	{d20-d21}, [r6]
  1019b8:	f4652a8f 	vld1.32	{d18-d19}, [r5]
}

__extension__ static __inline float32x4_t __attribute__ ((__always_inline__))
vmulq_f32 (float32x4_t __a, float32x4_t __b)
{
  return (float32x4_t)__builtin_neon_vmulv4sf (__a, __b, 3);
  1019bc:	f30c4dfa 	vmul.f32	q2, q14, q13
}

__extension__ static __inline float32x4_t __attribute__ ((__always_inline__))
vld1q_f32 (const float32_t * __a)
{
  return (float32x4_t)__builtin_neon_vld1v4sf ((const __builtin_neon_sf *) __a);
  1019c0:	f4646a8f 	vld1.32	{d22-d23}, [r4]

__extension__ static __inline float32x4x2_t __attribute__ ((__always_inline__))
vuzpq_f32 (float32x4_t __a, float32x4_t __b)
{
  float32x4x2_t __rv;
  __builtin_neon_vuzpv4sf (&__rv.val[0], __a, __b);
  1019c4:	f3fa0164 	vuzp.32	q8, q10
  1019c8:	ecc30b04 	vstmia	r3, {d16-d17}
  1019cc:	edc34b04 	vstr	d20, [r3, #16]
  1019d0:	edc35b06 	vstr	d21, [r3, #24]
  return __rv;
  1019d4:	eddd0b2c 	vldr	d16, [sp, #176]	; 0xb0
  1019d8:	eddd1b2e 	vldr	d17, [sp, #184]	; 0xb8
  1019dc:	eddd4b30 	vldr	d20, [sp, #192]	; 0xc0
  1019e0:	eddd5b32 	vldr	d21, [sp, #200]	; 0xc8

__extension__ static __inline float32x4x2_t __attribute__ ((__always_inline__))
vuzpq_f32 (float32x4_t __a, float32x4_t __b)
{
  float32x4x2_t __rv;
  __builtin_neon_vuzpv4sf (&__rv.val[0], __a, __b);
  1019e4:	f3fa2166 	vuzp.32	q9, q11
  1019e8:	ecc32b04 	vstmia	r3, {d18-d19}
  1019ec:	edc36b04 	vstr	d22, [r3, #16]
  1019f0:	edc37b06 	vstr	d23, [r3, #24]
  return __rv;
  1019f4:	eddd6b2c 	vldr	d22, [sp, #176]	; 0xb0
  1019f8:	eddd7b2e 	vldr	d23, [sp, #184]	; 0xb8
  1019fc:	eddd2b30 	vldr	d18, [sp, #192]	; 0xc0
  101a00:	eddd3b32 	vldr	d19, [sp, #200]	; 0xc8
}

__extension__ static __inline float32x4_t __attribute__ ((__always_inline__))
vmulq_f32 (float32x4_t __a, float32x4_t __b)
{
  return (float32x4_t)__builtin_neon_vmulv4sf (__a, __b, 3);
  101a04:	f3022d50 	vmul.f32	q1, q1, q0
  101a08:	f34ccdfe 	vmul.f32	q14, q14, q15
  101a0c:	f3080dfe 	vmul.f32	q0, q12, q15
  101a10:	f340edf6 	vmul.f32	q15, q8, q11
  101a14:	f3488dfa 	vmul.f32	q12, q12, q13
  101a18:	f3400df2 	vmul.f32	q8, q8, q9
  101a1c:	f344adf2 	vmul.f32	q13, q10, q9
}

__extension__ static __inline float32x4_t __attribute__ ((__always_inline__))
vsubq_f32 (float32x4_t __a, float32x4_t __b)
{
  return (float32x4_t)__builtin_neon_vsubv4sf (__a, __b, 3);
  101a20:	eddd2b26 	vldr	d18, [sp, #152]	; 0x98
  101a24:	eddd3b28 	vldr	d19, [sp, #160]	; 0xa0
}

__extension__ static __inline float32x4_t __attribute__ ((__always_inline__))
vmulq_f32 (float32x4_t __a, float32x4_t __b)
{
  return (float32x4_t)__builtin_neon_vmulv4sf (__a, __b, 3);
  101a28:	f3444df6 	vmul.f32	q10, q10, q11
}

__extension__ static __inline float32x4_t __attribute__ ((__always_inline__))
vaddq_f32 (float32x4_t __a, float32x4_t __b)
{
  return (float32x4_t)__builtin_neon_vaddv4sf (__a, __b, 3);
  101a2c:	ecdd6b04 	vldmia	sp, {d22-d23}
}

__extension__ static __inline float32x4_t __attribute__ ((__always_inline__))
vsubq_f32 (float32x4_t __a, float32x4_t __b)
{
  return (float32x4_t)__builtin_neon_vsubv4sf (__a, __b, 3);
  101a30:	f222edce 	vsub.f32	q7, q9, q7
  101a34:	eddd2b04 	vldr	d18, [sp, #16]
  101a38:	eddd3b06 	vldr	d19, [sp, #24]
}

__extension__ static __inline float32x4_t __attribute__ ((__always_inline__))
vaddq_f32 (float32x4_t __a, float32x4_t __b)
{
  return (float32x4_t)__builtin_neon_vaddv4sf (__a, __b, 3);
  101a3c:	f206cdcc 	vadd.f32	q6, q11, q6
  101a40:	eddd6b22 	vldr	d22, [sp, #136]	; 0x88
  101a44:	eddd7b24 	vldr	d23, [sp, #144]	; 0x90
}

__extension__ static __inline float32x4_t __attribute__ ((__always_inline__))
vsubq_f32 (float32x4_t __a, float32x4_t __b)
{
  return (float32x4_t)__builtin_neon_vsubv4sf (__a, __b, 3);
  101a48:	f2228dc8 	vsub.f32	q4, q9, q4
}

__extension__ static __inline float32x4_t __attribute__ ((__always_inline__))
vaddq_f32 (float32x4_t __a, float32x4_t __b)
{
  return (float32x4_t)__builtin_neon_vaddv4sf (__a, __b, 3);
  101a4c:	f24ccde8 	vadd.f32	q14, q14, q12
  101a50:	eddd8b0a 	vldr	d24, [sp, #40]	; 0x28
  101a54:	eddd9b0c 	vldr	d25, [sp, #48]	; 0x30
}

__extension__ static __inline float32x4_t __attribute__ ((__always_inline__))
vsubq_f32 (float32x4_t __a, float32x4_t __b)
{
  return (float32x4_t)__builtin_neon_vsubv4sf (__a, __b, 3);
  101a58:	f26eadea 	vsub.f32	q13, q15, q13
}

__extension__ static __inline float32x4_t __attribute__ ((__always_inline__))
vaddq_f32 (float32x4_t __a, float32x4_t __b)
{
  return (float32x4_t)__builtin_neon_vaddv4sf (__a, __b, 3);
  101a5c:	edddeb0e 	vldr	d30, [sp, #56]	; 0x38
  101a60:	edddfb10 	vldr	d31, [sp, #64]	; 0x40
  101a64:	f2444de0 	vadd.f32	q10, q10, q8
  101a68:	eddd0b16 	vldr	d16, [sp, #88]	; 0x58
  101a6c:	eddd1b18 	vldr	d17, [sp, #96]	; 0x60
  101a70:	f2022d46 	vadd.f32	q1, q1, q3
}

__extension__ static __inline float32x4_t __attribute__ ((__always_inline__))
vsubq_f32 (float32x4_t __a, float32x4_t __b)
{
  return (float32x4_t)__builtin_neon_vsubv4sf (__a, __b, 3);
  101a74:	f2204d44 	vsub.f32	q2, q0, q2
}

__extension__ static __inline float32x4_t __attribute__ ((__always_inline__))
vaddq_f32 (float32x4_t __a, float32x4_t __b)
{
  return (float32x4_t)__builtin_neon_vaddv4sf (__a, __b, 3);
  101a78:	f24c6d66 	vadd.f32	q11, q6, q11
  101a7c:	edcd6b22 	vstr	d22, [sp, #136]	; 0x88
  101a80:	edcd7b24 	vstr	d23, [sp, #144]	; 0x90
  101a84:	f2488d68 	vadd.f32	q12, q4, q12
  101a88:	ed9d8b12 	vldr	d8, [sp, #72]	; 0x48
  101a8c:	ed9d9b14 	vldr	d9, [sp, #80]	; 0x50
  101a90:	edcd8b0a 	vstr	d24, [sp, #40]	; 0x28
  101a94:	edcd9b0c 	vstr	d25, [sp, #48]	; 0x30
  101a98:	f242ed6e 	vadd.f32	q15, q1, q15
  101a9c:	edcdeb0e 	vstr	d30, [sp, #56]	; 0x38
  101aa0:	edcdfb10 	vstr	d31, [sp, #64]	; 0x40
  101aa4:	f2048d48 	vadd.f32	q4, q2, q4
  101aa8:	ed8d8b12 	vstr	d8, [sp, #72]	; 0x48
  101aac:	ed8d9b14 	vstr	d9, [sp, #80]	; 0x50
  101ab0:	f24c0de0 	vadd.f32	q8, q14, q8
  101ab4:	edcd0b16 	vstr	d16, [sp, #88]	; 0x58
  101ab8:	edcd1b18 	vstr	d17, [sp, #96]	; 0x60
  101abc:	f20ead4a 	vadd.f32	q5, q7, q5
  101ac0:	eddd2b1a 	vldr	d18, [sp, #104]	; 0x68
  101ac4:	eddd3b1c 	vldr	d19, [sp, #112]	; 0x70
  101ac8:	eddd6b1e 	vldr	d22, [sp, #120]	; 0x78
  101acc:	eddd7b20 	vldr	d23, [sp, #128]	; 0x80
  101ad0:	f24a2de2 	vadd.f32	q9, q13, q9
  101ad4:	edcd2b1a 	vstr	d18, [sp, #104]	; 0x68
  101ad8:	edcd3b1c 	vstr	d19, [sp, #112]	; 0x70
  101adc:	f2446de6 	vadd.f32	q11, q10, q11
  101ae0:	edcd6b1e 	vstr	d22, [sp, #120]	; 0x78
  101ae4:	edcd7b20 	vstr	d23, [sp, #128]	; 0x80
  101ae8:	1affff53 	bne	10183c <arm_cmplx_mult_cmplx_f32_dot2+0x70>
 * @param[out]  *pDst  points to the output vector     
 * @param[in]  numSamples number of complex samples in each vector     
 * @return none.     
 */
// __INLINE
void arm_cmplx_mult_cmplx_f32_dot2(
  101aec:	e59d00ac 	ldr	r0, [sp, #172]	; 0xac
  101af0:	e3011000 	movw	r1, #4096	; 0x1000
  101af4:	e3053000 	movw	r3, #20480	; 0x5000
  101af8:	e3401000 	movt	r1, #0
  101afc:	e3403000 	movt	r3, #0
  101b00:	f22ac15a 	vorr	q6, q5, q5
  101b04:	ed9deb22 	vldr	d14, [sp, #136]	; 0x88
  101b08:	ed9dfb24 	vldr	d15, [sp, #144]	; 0x90
  101b0c:	e1a02380 	lsl	r2, r0, #7
  101b10:	e0821001 	add	r1, r2, r1
  101b14:	e0822003 	add	r2, r2, r3
    /* Decrement the numSamples loop counter */
    blkCnt--;
  }

  blkCnt = numSamples & 15u;
  blkCnt = blkCnt >> 2u;
  101b18:	e59d30a8 	ldr	r3, [sp, #168]	; 0xa8
  101b1c:	e7e17153 	ubfx	r7, r3, #2, #2

  /* If the blockSize is not a multiple of 16, compute remaining output samples.     
   ** Compute multiple of 4 samples at a time in second loop.  
   ** and remaining 1 to 3 samples in third loop. */
  while(blkCnt > 0u)
  101b20:	e3570000 	cmp	r7, #0
  101b24:	0a000028 	beq	101bcc <arm_cmplx_mult_cmplx_f32_dot2+0x400>
  101b28:	e1a06002 	mov	r6, r2
  101b2c:	e1a05001 	mov	r5, r1
  101b30:	e1a04007 	mov	r4, r7
  101b34:	e28d30b0 	add	r3, sp, #176	; 0xb0
}

__extension__ static __inline float32x4_t __attribute__ ((__always_inline__))
vld1q_f32 (const float32_t * __a)
{
  return (float32x4_t)__builtin_neon_vld1v4sf ((const __builtin_neon_sf *) __a);
  101b38:	e1a0c005 	mov	ip, r5
  101b3c:	e1a00006 	mov	r0, r6
  101b40:	e2544001 	subs	r4, r4, #1
 * @param[out]  *pDst  points to the output vector     
 * @param[in]  numSamples number of complex samples in each vector     
 * @return none.     
 */
// __INLINE
void arm_cmplx_mult_cmplx_f32_dot2(
  101b44:	e2855020 	add	r5, r5, #32
  101b48:	f46c0a8d 	vld1.32	{d16-d17}, [ip]!
  101b4c:	e2866020 	add	r6, r6, #32
  101b50:	f4602a8d 	vld1.32	{d18-d19}, [r0]!
  101b54:	f46c4a8f 	vld1.32	{d20-d21}, [ip]
  101b58:	f4606a8f 	vld1.32	{d22-d23}, [r0]

__extension__ static __inline float32x4x2_t __attribute__ ((__always_inline__))
vuzpq_f32 (float32x4_t __a, float32x4_t __b)
{
  float32x4x2_t __rv;
  __builtin_neon_vuzpv4sf (&__rv.val[0], __a, __b);
  101b5c:	f3fa0164 	vuzp.32	q8, q10
  101b60:	ecc30b04 	vstmia	r3, {d16-d17}
  101b64:	edc34b04 	vstr	d20, [r3, #16]
  101b68:	edc35b06 	vstr	d21, [r3, #24]
  return __rv;
  101b6c:	eddd0b2c 	vldr	d16, [sp, #176]	; 0xb0
  101b70:	eddd1b2e 	vldr	d17, [sp, #184]	; 0xb8
  101b74:	eddd4b30 	vldr	d20, [sp, #192]	; 0xc0
  101b78:	eddd5b32 	vldr	d21, [sp, #200]	; 0xc8

__extension__ static __inline float32x4x2_t __attribute__ ((__always_inline__))
vuzpq_f32 (float32x4_t __a, float32x4_t __b)
{
  float32x4x2_t __rv;
  __builtin_neon_vuzpv4sf (&__rv.val[0], __a, __b);
  101b7c:	f3fa2166 	vuzp.32	q9, q11
  101b80:	ecc32b04 	vstmia	r3, {d18-d19}
  101b84:	edc36b04 	vstr	d22, [r3, #16]
  101b88:	edc37b06 	vstr	d23, [r3, #24]
  return __rv;
  101b8c:	eddd6b2c 	vldr	d22, [sp, #176]	; 0xb0
  101b90:	eddd7b2e 	vldr	d23, [sp, #184]	; 0xb8
  101b94:	eddd2b30 	vldr	d18, [sp, #192]	; 0xc0
  101b98:	eddd3b32 	vldr	d19, [sp, #200]	; 0xc8
}

__extension__ static __inline float32x4_t __attribute__ ((__always_inline__))
vmulq_f32 (float32x4_t __a, float32x4_t __b)
{
  return (float32x4_t)__builtin_neon_vmulv4sf (__a, __b, 3);
  101b9c:	f340adf6 	vmul.f32	q13, q8, q11
  101ba0:	f3448df2 	vmul.f32	q12, q10, q9
  101ba4:	f3400df2 	vmul.f32	q8, q8, q9
  101ba8:	f3444df6 	vmul.f32	q10, q10, q11
}

__extension__ static __inline float32x4_t __attribute__ ((__always_inline__))
vsubq_f32 (float32x4_t __a, float32x4_t __b)
{
  return (float32x4_t)__builtin_neon_vsubv4sf (__a, __b, 3);
  101bac:	f26a8de8 	vsub.f32	q12, q13, q12
}

__extension__ static __inline float32x4_t __attribute__ ((__always_inline__))
vaddq_f32 (float32x4_t __a, float32x4_t __b)
{
  return (float32x4_t)__builtin_neon_vaddv4sf (__a, __b, 3);
  101bb0:	f2440de0 	vadd.f32	q8, q10, q8
  101bb4:	f208cdcc 	vadd.f32	q6, q12, q6
  101bb8:	f200edce 	vadd.f32	q7, q8, q7
  blkCnt = blkCnt >> 2u;

  /* If the blockSize is not a multiple of 16, compute remaining output samples.     
   ** Compute multiple of 4 samples at a time in second loop.  
   ** and remaining 1 to 3 samples in third loop. */
  while(blkCnt > 0u)
  101bbc:	1affffdd 	bne	101b38 <arm_cmplx_mult_cmplx_f32_dot2+0x36c>
 * @param[out]  *pDst  points to the output vector     
 * @param[in]  numSamples number of complex samples in each vector     
 * @return none.     
 */
// __INLINE
void arm_cmplx_mult_cmplx_f32_dot2(
  101bc0:	e1a07287 	lsl	r7, r7, #5
  101bc4:	e0811007 	add	r1, r1, r7
  101bc8:	e0822007 	add	r2, r2, r7

  /* If the blockSize is not a multiple of 4, compute any remaining output samples here.     
   ** No intrinsics is used. */
  sum_real =0;
  sum_img =0;
  while(blkCnt > 0u)
  101bcc:	e59d50a8 	ldr	r5, [sp, #168]	; 0xa8
    c = *pSrcB++;
    d = *pSrcB++;

    /* store the result in the destination buffer. */
    sum_real += ((a * c) - (b * d));
    sum_img += ((a * d) + (b * c));
  101bd0:	ed9f5a47 	vldr	s10, [pc, #284]	; 101cf4 <arm_cmplx_mult_cmplx_f32_dot2+0x528>

  /* If the blockSize is not a multiple of 4, compute any remaining output samples here.     
   ** No intrinsics is used. */
  sum_real =0;
  sum_img =0;
  while(blkCnt > 0u)
  101bd4:	e2153003 	ands	r3, r5, #3
    b = *pSrcA++;
    c = *pSrcB++;
    d = *pSrcB++;

    /* store the result in the destination buffer. */
    sum_real += ((a * c) - (b * d));
  101bd8:	eef04a45 	vmov.f32	s9, s10

  /* If the blockSize is not a multiple of 4, compute any remaining output samples here.     
   ** No intrinsics is used. */
  sum_real =0;
  sum_img =0;
  while(blkCnt > 0u)
  101bdc:	0a00000d 	beq	101c18 <arm_cmplx_mult_cmplx_f32_dot2+0x44c>
 * @param[out]  *pDst  points to the output vector     
 * @param[in]  numSamples number of complex samples in each vector     
 * @return none.     
 */
// __INLINE
void arm_cmplx_mult_cmplx_f32_dot2(
  101be0:	e2822008 	add	r2, r2, #8
  sum_img =0;
  while(blkCnt > 0u)
  {
    /* C[2 * i] = A[2 * i] * B[2 * i] - A[2 * i + 1] * B[2 * i + 1].  */
    /* C[2 * i + 1] = A[2 * i] * B[2 * i + 1] + A[2 * i + 1] * B[2 * i].  */
    a = *pSrcA++;
  101be4:	edd15a00 	vldr	s11, [r1]
    b = *pSrcA++;
  101be8:	ed916a01 	vldr	s12, [r1, #4]

  /* If the blockSize is not a multiple of 4, compute any remaining output samples here.     
   ** No intrinsics is used. */
  sum_real =0;
  sum_img =0;
  while(blkCnt > 0u)
  101bec:	e2533001 	subs	r3, r3, #1
    /* C[2 * i] = A[2 * i] * B[2 * i] - A[2 * i + 1] * B[2 * i + 1].  */
    /* C[2 * i + 1] = A[2 * i] * B[2 * i + 1] + A[2 * i + 1] * B[2 * i].  */
    a = *pSrcA++;
    b = *pSrcA++;
    c = *pSrcB++;
    d = *pSrcB++;
  101bf0:	ed527a01 	vldr	s15, [r2, #-4]
 * @param[out]  *pDst  points to the output vector     
 * @param[in]  numSamples number of complex samples in each vector     
 * @return none.     
 */
// __INLINE
void arm_cmplx_mult_cmplx_f32_dot2(
  101bf4:	e2811008 	add	r1, r1, #8
  {
    /* C[2 * i] = A[2 * i] * B[2 * i] - A[2 * i + 1] * B[2 * i + 1].  */
    /* C[2 * i + 1] = A[2 * i] * B[2 * i + 1] + A[2 * i + 1] * B[2 * i].  */
    a = *pSrcA++;
    b = *pSrcA++;
    c = *pSrcB++;
  101bf8:	ed526a02 	vldr	s13, [r2, #-8]
    d = *pSrcB++;

    /* store the result in the destination buffer. */
    sum_real += ((a * c) - (b * d));
  101bfc:	ee267a27 	vmul.f32	s14, s12, s15
    sum_img += ((a * d) + (b * c));
  101c00:	ee657aa7 	vmul.f32	s15, s11, s15
    b = *pSrcA++;
    c = *pSrcB++;
    d = *pSrcB++;

    /* store the result in the destination buffer. */
    sum_real += ((a * c) - (b * d));
  101c04:	ee157aa6 	vnmls.f32	s14, s11, s13
    sum_img += ((a * d) + (b * c));
  101c08:	ee467a26 	vmla.f32	s15, s12, s13
    b = *pSrcA++;
    c = *pSrcB++;
    d = *pSrcB++;

    /* store the result in the destination buffer. */
    sum_real += ((a * c) - (b * d));
  101c0c:	ee744a87 	vadd.f32	s9, s9, s14
    sum_img += ((a * d) + (b * c));
  101c10:	ee355a27 	vadd.f32	s10, s10, s15

  /* If the blockSize is not a multiple of 4, compute any remaining output samples here.     
   ** No intrinsics is used. */
  sum_real =0;
  sum_img =0;
  while(blkCnt > 0u)
  101c14:	1afffff1 	bne	101be0 <arm_cmplx_mult_cmplx_f32_dot2+0x414>
  101c18:	ed9d8b0a 	vldr	d8, [sp, #40]	; 0x28
  101c1c:	ed9d9b0c 	vldr	d9, [sp, #48]	; 0x30
  101c20:	eddd0b0e 	vldr	d16, [sp, #56]	; 0x38
  101c24:	eddd1b10 	vldr	d17, [sp, #64]	; 0x40
  101c28:	f24c6d48 	vadd.f32	q11, q6, q4
  101c2c:	eddd8b12 	vldr	d24, [sp, #72]	; 0x48
  101c30:	eddd9b14 	vldr	d25, [sp, #80]	; 0x50
  101c34:	f24e4d60 	vadd.f32	q10, q7, q8
  101c38:	edddab1a 	vldr	d26, [sp, #104]	; 0x68
  101c3c:	edddbb1c 	vldr	d27, [sp, #112]	; 0x70
  101c40:	edddeb16 	vldr	d30, [sp, #88]	; 0x58
  101c44:	edddfb18 	vldr	d31, [sp, #96]	; 0x60
  101c48:	ed9d8b1e 	vldr	d8, [sp, #120]	; 0x78
  101c4c:	ed9d9b20 	vldr	d9, [sp, #128]	; 0x80
	sum_real += vgetq_lane_f32(acc1.val[0], 0) + vgetq_lane_f32(acc1.val[0], 1)
		+ vgetq_lane_f32(acc1.val[0], 2) + vgetq_lane_f32(acc1.val[0], 3);
	sum_img += vgetq_lane_f32(acc1.val[1], 0) + vgetq_lane_f32(acc1.val[1], 1)
		+ vgetq_lane_f32(acc1.val[1], 2) + vgetq_lane_f32(acc1.val[1], 3);

	*pDst++=sum_real;
  101c50:	e3093008 	movw	r3, #36872	; 0x9008
  101c54:	f2482dea 	vadd.f32	q9, q12, q13
  101c58:	e3403000 	movt	r3, #0
  101c5c:	f24e0dc8 	vadd.f32	q8, q15, q4
  101c60:	f2462de2 	vadd.f32	q9, q11, q9
  101c64:	f2440de0 	vadd.f32	q8, q10, q8
}

__extension__ static __inline float32_t __attribute__ ((__always_inline__))
vgetq_lane_f32 (float32x4_t __a, const int __b)
{
  return (float32_t)__builtin_neon_vget_lanev4sf (__a, __b, 3);
  101c68:	ee120b90 	vmov.32	r0, d18[0]
  101c6c:	ee105b90 	vmov.32	r5, d16[0]
  101c70:	ee322b90 	vmov.32	r2, d18[1]
  101c74:	ee308b90 	vmov.32	r8, d16[1]
  101c78:	ee070a10 	vmov	s14, r0
  101c7c:	ee075a90 	vmov	s15, r5
  101c80:	ee062a10 	vmov	s12, r2
  101c84:	ee068a90 	vmov	s13, r8
	acc2.val[0] = vaddq_f32(acc3.val[0], acc4.val[0]);
	acc2.val[1] = vaddq_f32(acc3.val[1], acc4.val[1]);
	acc1.val[0] = vaddq_f32(acc1.val[0], acc2.val[0]);
	acc1.val[1] = vaddq_f32(acc1.val[1], acc2.val[1]);

	sum_real += vgetq_lane_f32(acc1.val[0], 0) + vgetq_lane_f32(acc1.val[0], 1)
  101c88:	ee367a07 	vadd.f32	s14, s12, s14
		+ vgetq_lane_f32(acc1.val[0], 2) + vgetq_lane_f32(acc1.val[0], 3);
	sum_img += vgetq_lane_f32(acc1.val[1], 0) + vgetq_lane_f32(acc1.val[1], 1)
  101c8c:	ee767aa7 	vadd.f32	s15, s13, s15
  101c90:	ee130b90 	vmov.32	r0, d19[0]
  101c94:	ee112b90 	vmov.32	r2, d17[0]
  101c98:	ee060a10 	vmov	s12, r0
  101c9c:	ee062a90 	vmov	s13, r2
	acc2.val[1] = vaddq_f32(acc3.val[1], acc4.val[1]);
	acc1.val[0] = vaddq_f32(acc1.val[0], acc2.val[0]);
	acc1.val[1] = vaddq_f32(acc1.val[1], acc2.val[1]);

	sum_real += vgetq_lane_f32(acc1.val[0], 0) + vgetq_lane_f32(acc1.val[0], 1)
		+ vgetq_lane_f32(acc1.val[0], 2) + vgetq_lane_f32(acc1.val[0], 3);
  101ca0:	ee377a06 	vadd.f32	s14, s14, s12
	sum_img += vgetq_lane_f32(acc1.val[1], 0) + vgetq_lane_f32(acc1.val[1], 1)
		+ vgetq_lane_f32(acc1.val[1], 2) + vgetq_lane_f32(acc1.val[1], 3);
  101ca4:	ee777aa6 	vadd.f32	s15, s15, s13
  101ca8:	ee335b90 	vmov.32	r5, d19[1]
  101cac:	ee318b90 	vmov.32	r8, d17[1]
  101cb0:	ee065a10 	vmov	s12, r5
  101cb4:	ee068a90 	vmov	s13, r8
	acc2.val[1] = vaddq_f32(acc3.val[1], acc4.val[1]);
	acc1.val[0] = vaddq_f32(acc1.val[0], acc2.val[0]);
	acc1.val[1] = vaddq_f32(acc1.val[1], acc2.val[1]);

	sum_real += vgetq_lane_f32(acc1.val[0], 0) + vgetq_lane_f32(acc1.val[0], 1)
		+ vgetq_lane_f32(acc1.val[0], 2) + vgetq_lane_f32(acc1.val[0], 3);
  101cb8:	ee377a06 	vadd.f32	s14, s14, s12
	sum_img += vgetq_lane_f32(acc1.val[1], 0) + vgetq_lane_f32(acc1.val[1], 1)
		+ vgetq_lane_f32(acc1.val[1], 2) + vgetq_lane_f32(acc1.val[1], 3);
  101cbc:	ee777aa6 	vadd.f32	s15, s15, s13
	acc2.val[0] = vaddq_f32(acc3.val[0], acc4.val[0]);
	acc2.val[1] = vaddq_f32(acc3.val[1], acc4.val[1]);
	acc1.val[0] = vaddq_f32(acc1.val[0], acc2.val[0]);
	acc1.val[1] = vaddq_f32(acc1.val[1], acc2.val[1]);

	sum_real += vgetq_lane_f32(acc1.val[0], 0) + vgetq_lane_f32(acc1.val[0], 1)
  101cc0:	ee774a24 	vadd.f32	s9, s14, s9
		+ vgetq_lane_f32(acc1.val[0], 2) + vgetq_lane_f32(acc1.val[0], 3);
	sum_img += vgetq_lane_f32(acc1.val[1], 0) + vgetq_lane_f32(acc1.val[1], 1)
  101cc4:	ee375a85 	vadd.f32	s10, s15, s10
		+ vgetq_lane_f32(acc1.val[1], 2) + vgetq_lane_f32(acc1.val[1], 3);

	*pDst++=sum_real;
  101cc8:	edc34a00 	vstr	s9, [r3]
	*pDst++=sum_img;
  101ccc:	ed835a01 	vstr	s10, [r3, #4]

}
  101cd0:	e28dd0d0 	add	sp, sp, #208	; 0xd0
  101cd4:	ecbd8b10 	vpop	{d8-d15}
  101cd8:	e8bd0ff0 	pop	{r4, r5, r6, r7, r8, r9, sl, fp}
  101cdc:	e12fff1e 	bx	lr
  float32_t * pSrcA;
  float32_t * pSrcB;
  float32_t * pDst;
  
  pSrcA = gf_array_src_a;
  pSrcB = gf_array_src_b;
  101ce0:	e3052000 	movw	r2, #20480	; 0x5000
  
  float32_t * pSrcA;
  float32_t * pSrcB;
  float32_t * pDst;
  
  pSrcA = gf_array_src_a;
  101ce4:	e3011000 	movw	r1, #4096	; 0x1000
  pSrcB = gf_array_src_b;
  101ce8:	e3402000 	movt	r2, #0
  
  float32_t * pSrcA;
  float32_t * pSrcB;
  float32_t * pDst;
  
  pSrcA = gf_array_src_a;
  101cec:	e3401000 	movt	r1, #0
  101cf0:	eaffff88 	b	101b18 <arm_cmplx_mult_cmplx_f32_dot2+0x34c>
  101cf4:	00000000 	.word	0x00000000
  101cf8:	00001010 	.word	0x00001010
  101cfc:	00005010 	.word	0x00005010

00101d00 <sp_cmplx_vector_dot_mul>:
/*

*/

void  sp_cmplx_vector_dot_mul( unsigned int ui_vector_length )
{
  101d00:	e92d07f0 	push	{r4, r5, r6, r7, r8, r9, sl}

	ui_vector_length = ui_vector_length&0xfffffffe;
	//printf("ui_vector_length: %d\n\r", ui_vector_length);

	p_a = gf_array_src_a;
	p_b = gf_array_src_b;
  101d04:	e305c000 	movw	ip, #20480	; 0x5000
	float	sum_img=0;

	ui_vector_length = ui_vector_length&0xfffffffe;
	//printf("ui_vector_length: %d\n\r", ui_vector_length);

	p_a = gf_array_src_a;
  101d08:	e3014000 	movw	r4, #4096	; 0x1000
	p_b = gf_array_src_b;
    for( j=0; j<ui_vector_length; j++ )
  101d0c:	e3d00001 	bics	r0, r0, #1
	float	sum_img=0;

	ui_vector_length = ui_vector_length&0xfffffffe;
	//printf("ui_vector_length: %d\n\r", ui_vector_length);

	p_a = gf_array_src_a;
  101d10:	e3404000 	movt	r4, #0
	p_b = gf_array_src_b;
  101d14:	e340c000 	movt	ip, #0
/*

*/

void  sp_cmplx_vector_dot_mul( unsigned int ui_vector_length )
{
  101d18:	ed2d8b04 	vpush	{d8-d9}
  101d1c:	e24dd00c 	sub	sp, sp, #12

/*

*/

void  sp_cmplx_vector_dot_mul( unsigned int ui_vector_length )
  101d20:	eddf5a5e 	vldr	s11, [pc, #376]	; 101ea0 <sp_cmplx_vector_dot_mul+0x1a0>
	float	sum_img=0;

	ui_vector_length = ui_vector_length&0xfffffffe;
	//printf("ui_vector_length: %d\n\r", ui_vector_length);

	p_a = gf_array_src_a;
  101d24:	edd46a00 	vldr	s13, [r4]
	p_b = gf_array_src_b;
  101d28:	ed9c6a00 	vldr	s12, [ip]
    for( j=0; j<ui_vector_length; j++ )
  101d2c:	0a000059 	beq	101e98 <sp_cmplx_vector_dot_mul+0x198>
  101d30:	e3500004 	cmp	r0, #4

/*

*/

void  sp_cmplx_vector_dot_mul( unsigned int ui_vector_length )
  101d34:	e2409003 	sub	r9, r0, #3
  101d38:	9a000051 	bls	101e84 <sp_cmplx_vector_dot_mul+0x184>
  101d3c:	e2847020 	add	r7, r4, #32
  101d40:	e28ca020 	add	sl, ip, #32
  101d44:	e2846004 	add	r6, r4, #4
  101d48:	e28c5004 	add	r5, ip, #4
  101d4c:	e2844008 	add	r4, r4, #8
  101d50:	e28cc008 	add	ip, ip, #8
	ui_vector_length = ui_vector_length&0xfffffffe;
	//printf("ui_vector_length: %d\n\r", ui_vector_length);

	p_a = gf_array_src_a;
	p_b = gf_array_src_b;
    for( j=0; j<ui_vector_length; j++ )
  101d54:	e3a08000 	mov	r8, #0
	float	*p_b;
	float	a_real;
	float	a_img;
	float	b_real;
	float	b_img;
	float	sum_real=0;
  101d58:	eeb05a65 	vmov.f32	s10, s11
		p_a++;
		a_img = *p_a;
		p_a++;
		b_real = *p_b;
		p_b++;
		b_img = *p_b;
  101d5c:	ed954a00 	vldr	s8, [r5]
  101d60:	e2866020 	add	r6, r6, #32
    {
		//(a+bi)(c+di) = a*c-bd  +(ad+bc)i
		a_real = *p_a;
		p_a++;
		a_img = *p_a;
		p_a++;
  101d64:	edd48a02 	vldr	s17, [r4, #8]
  101d68:	e28cc020 	add	ip, ip, #32
		b_real = *p_b;
		p_b++;
		b_img = *p_b;
		p_b++;
  101d6c:	ed1c8a06 	vldr	s16, [ip, #-24]	; 0xffffffe8
  101d70:	e2844020 	add	r4, r4, #32
    for( j=0; j<ui_vector_length; j++ )
    {
		//(a+bi)(c+di) = a*c-bd  +(ad+bc)i
		a_real = *p_a;
		p_a++;
		a_img = *p_a;
  101d74:	ed564a08 	vldr	s9, [r6, #-32]	; 0xffffffe0
  101d78:	e2855020 	add	r5, r5, #32
		p_a++;
  101d7c:	ed141a08 	vldr	s2, [r4, #-32]	; 0xffffffe0
	ui_vector_length = ui_vector_length&0xfffffffe;
	//printf("ui_vector_length: %d\n\r", ui_vector_length);

	p_a = gf_array_src_a;
	p_b = gf_array_src_b;
    for( j=0; j<ui_vector_length; j++ )
  101d80:	e2888004 	add	r8, r8, #4
		a_img = *p_a;
		p_a++;
		b_real = *p_b;
		p_b++;
		b_img = *p_b;
		p_b++;
  101d84:	ed1c9a08 	vldr	s18, [ip, #-32]	; 0xffffffe0
  101d88:	e2881001 	add	r1, r8, #1
    	sum_real += a_real*b_real-a_img*b_img;
    	sum_img += a_real*b_img+a_img*b_real;
  101d8c:	ee247a26 	vmul.f32	s14, s8, s13
  101d90:	e1590001 	cmp	r9, r1
		p_a++;
		b_real = *p_b;
		p_b++;
		b_img = *p_b;
		p_b++;
    	sum_real += a_real*b_real-a_img*b_img;
  101d94:	ee687a28 	vmul.f32	s15, s16, s17
  101d98:	f5d7f044 	pld	[r7, #68]	; 0x44
		p_a++;
		a_img = *p_a;
		p_a++;
		b_real = *p_b;
		p_b++;
		b_img = *p_b;
  101d9c:	ed152a06 	vldr	s4, [r5, #-24]	; 0xffffffe8
    {
		//(a+bi)(c+di) = a*c-bd  +(ad+bc)i
		a_real = *p_a;
		p_a++;
		a_img = *p_a;
		p_a++;
  101da0:	e1a02007 	mov	r2, r7
    for( j=0; j<ui_vector_length; j++ )
    {
		//(a+bi)(c+di) = a*c-bd  +(ad+bc)i
		a_real = *p_a;
		p_a++;
		a_img = *p_a;
  101da4:	ed562a06 	vldr	s5, [r6, #-24]	; 0xffffffe8
		p_a++;
		b_real = *p_b;
		p_b++;
		b_img = *p_b;
		p_b++;
  101da8:	e1a0300a 	mov	r3, sl
    	sum_real += a_real*b_real-a_img*b_img;
    	sum_img += a_real*b_img+a_img*b_real;
  101dac:	ee047a86 	vmla.f32	s14, s9, s12
  101db0:	e2877020 	add	r7, r7, #32
		p_a++;
		b_real = *p_b;
		p_b++;
		b_img = *p_b;
		p_b++;
    	sum_real += a_real*b_real-a_img*b_img;
  101db4:	ee497a01 	vmla.f32	s15, s18, s2
  101db8:	e28aa020 	add	sl, sl, #32
    {
		//(a+bi)(c+di) = a*c-bd  +(ad+bc)i
		a_real = *p_a;
		p_a++;
		a_img = *p_a;
		p_a++;
  101dbc:	ed541a04 	vldr	s3, [r4, #-16]
		b_real = *p_b;
		p_b++;
		b_img = *p_b;
		p_b++;
  101dc0:	ed5c3a04 	vldr	s7, [ip, #-16]
		p_a++;
		a_img = *p_a;
		p_a++;
		b_real = *p_b;
		p_b++;
		b_img = *p_b;
  101dc4:	ed150a04 	vldr	s0, [r5, #-16]
    for( j=0; j<ui_vector_length; j++ )
    {
		//(a+bi)(c+di) = a*c-bd  +(ad+bc)i
		a_real = *p_a;
		p_a++;
		a_img = *p_a;
  101dc8:	ed163a02 	vldr	s6, [r6, #-8]
		b_real = *p_b;
		p_b++;
		b_img = *p_b;
		p_b++;
    	sum_real += a_real*b_real-a_img*b_img;
    	sum_img += a_real*b_img+a_img*b_real;
  101dcc:	ee027a01 	vmla.f32	s14, s4, s2
		p_a++;
		b_real = *p_b;
		p_b++;
		b_img = *p_b;
		p_b++;
    	sum_real += a_real*b_real-a_img*b_img;
  101dd0:	ee467a26 	vmla.f32	s15, s12, s13
		p_a++;
		a_img = *p_a;
		p_a++;
		b_real = *p_b;
		p_b++;
		b_img = *p_b;
  101dd4:	ed151a02 	vldr	s2, [r5, #-8]
    for( j=0; j<ui_vector_length; j++ )
    {
		//(a+bi)(c+di) = a*c-bd  +(ad+bc)i
		a_real = *p_a;
		p_a++;
		a_img = *p_a;
  101dd8:	ed560a04 	vldr	s1, [r6, #-16]
		p_a++;
  101ddc:	ed546a02 	vldr	s13, [r4, #-8]
		b_real = *p_b;
		p_b++;
		b_img = *p_b;
		p_b++;
  101de0:	ed1c6a02 	vldr	s12, [ip, #-8]
    	sum_real += a_real*b_real-a_img*b_img;
    	sum_img += a_real*b_img+a_img*b_real;
  101de4:	ee027a89 	vmla.f32	s14, s5, s18
		p_a++;
		b_real = *p_b;
		p_b++;
		b_img = *p_b;
		p_b++;
    	sum_real += a_real*b_real-a_img*b_img;
  101de8:	ee437aa1 	vmla.f32	s15, s7, s3
    	sum_img += a_real*b_img+a_img*b_real;
  101dec:	ee007a28 	vmla.f32	s14, s0, s17
		p_a++;
		b_real = *p_b;
		p_b++;
		b_img = *p_b;
		p_b++;
    	sum_real += a_real*b_real-a_img*b_img;
  101df0:	ee417a43 	vmls.f32	s15, s2, s6
    	sum_img += a_real*b_img+a_img*b_real;
  101df4:	ee007a88 	vmla.f32	s14, s1, s16
		p_a++;
		b_real = *p_b;
		p_b++;
		b_img = *p_b;
		p_b++;
    	sum_real += a_real*b_real-a_img*b_img;
  101df8:	ee407a60 	vmls.f32	s15, s0, s1
    	sum_img += a_real*b_img+a_img*b_real;
  101dfc:	ee017a21 	vmla.f32	s14, s2, s3
		p_a++;
		b_real = *p_b;
		p_b++;
		b_img = *p_b;
		p_b++;
    	sum_real += a_real*b_real-a_img*b_img;
  101e00:	ee427a62 	vmls.f32	s15, s4, s5
    	sum_img += a_real*b_img+a_img*b_real;
  101e04:	ee037a23 	vmla.f32	s14, s6, s7
		p_a++;
		b_real = *p_b;
		p_b++;
		b_img = *p_b;
		p_b++;
    	sum_real += a_real*b_real-a_img*b_img;
  101e08:	ee447a64 	vmls.f32	s15, s8, s9
    	sum_img += a_real*b_img+a_img*b_real;
  101e0c:	ee755a87 	vadd.f32	s11, s11, s14
		p_a++;
		b_real = *p_b;
		p_b++;
		b_img = *p_b;
		p_b++;
    	sum_real += a_real*b_real-a_img*b_img;
  101e10:	ee355a27 	vadd.f32	s10, s10, s15
  101e14:	8affffd0 	bhi	101d5c <sp_cmplx_vector_dot_mul+0x5c>

/*

*/

void  sp_cmplx_vector_dot_mul( unsigned int ui_vector_length )
  101e18:	e2822004 	add	r2, r2, #4
  101e1c:	e2833004 	add	r3, r3, #4
    for( j=0; j<ui_vector_length; j++ )
    {
		//(a+bi)(c+di) = a*c-bd  +(ad+bc)i
		a_real = *p_a;
		p_a++;
		a_img = *p_a;
  101e20:	edd24a00 	vldr	s9, [r2]
	ui_vector_length = ui_vector_length&0xfffffffe;
	//printf("ui_vector_length: %d\n\r", ui_vector_length);

	p_a = gf_array_src_a;
	p_b = gf_array_src_b;
    for( j=0; j<ui_vector_length; j++ )
  101e24:	e1500001 	cmp	r0, r1
		p_a++;
		a_img = *p_a;
		p_a++;
		b_real = *p_b;
		p_b++;
		b_img = *p_b;
  101e28:	edd37a00 	vldr	s15, [r3]
  101e2c:	e2822008 	add	r2, r2, #8
  101e30:	e2833008 	add	r3, r3, #8
  101e34:	e2811001 	add	r1, r1, #1
		p_b++;
    	sum_real += a_real*b_real-a_img*b_img;
    	sum_img += a_real*b_img+a_img*b_real;
  101e38:	ee277aa6 	vmul.f32	s14, s15, s13
		p_a++;
		b_real = *p_b;
		p_b++;
		b_img = *p_b;
		p_b++;
    	sum_real += a_real*b_real-a_img*b_img;
  101e3c:	ee677aa4 	vmul.f32	s15, s15, s9
    	sum_img += a_real*b_img+a_img*b_real;
  101e40:	ee047a86 	vmla.f32	s14, s9, s12
		p_a++;
		b_real = *p_b;
		p_b++;
		b_img = *p_b;
		p_b++;
    	sum_real += a_real*b_real-a_img*b_img;
  101e44:	ee567a26 	vnmls.f32	s15, s12, s13
    {
		//(a+bi)(c+di) = a*c-bd  +(ad+bc)i
		a_real = *p_a;
		p_a++;
		a_img = *p_a;
		p_a++;
  101e48:	ed526a01 	vldr	s13, [r2, #-4]
		b_real = *p_b;
		p_b++;
		b_img = *p_b;
		p_b++;
  101e4c:	ed136a01 	vldr	s12, [r3, #-4]
    	sum_real += a_real*b_real-a_img*b_img;
    	sum_img += a_real*b_img+a_img*b_real;
  101e50:	ee755a87 	vadd.f32	s11, s11, s14
		p_a++;
		b_real = *p_b;
		p_b++;
		b_img = *p_b;
		p_b++;
    	sum_real += a_real*b_real-a_img*b_img;
  101e54:	ee355a27 	vadd.f32	s10, s10, s15
	ui_vector_length = ui_vector_length&0xfffffffe;
	//printf("ui_vector_length: %d\n\r", ui_vector_length);

	p_a = gf_array_src_a;
	p_b = gf_array_src_b;
    for( j=0; j<ui_vector_length; j++ )
  101e58:	8afffff0 	bhi	101e20 <sp_cmplx_vector_dot_mul+0x120>
		p_b++;
    	sum_real += a_real*b_real-a_img*b_img;
    	sum_img += a_real*b_img+a_img*b_real;
    }

	gf_sum[0] = sum_real;
  101e5c:	ed8d5a00 	vstr	s10, [sp]
  101e60:	e3093010 	movw	r3, #36880	; 0x9010
  101e64:	edcd5a01 	vstr	s11, [sp, #4]
  101e68:	e3403000 	movt	r3, #0
  101e6c:	eddd0b00 	vldr	d16, [sp]
  101e70:	f443078f 	vst1.32	{d16}, [r3]
	gf_sum[1] = sum_img;

}
  101e74:	e28dd00c 	add	sp, sp, #12
  101e78:	ecbd8b04 	vpop	{d8-d9}
  101e7c:	e8bd07f0 	pop	{r4, r5, r6, r7, r8, r9, sl}
  101e80:	e12fff1e 	bx	lr

/*

*/

void  sp_cmplx_vector_dot_mul( unsigned int ui_vector_length )
  101e84:	e1a0300c 	mov	r3, ip
  101e88:	e1a02004 	mov	r2, r4
  101e8c:	e3a01001 	mov	r1, #1
  101e90:	eeb05a65 	vmov.f32	s10, s11
  101e94:	eaffffdf 	b	101e18 <sp_cmplx_vector_dot_mul+0x118>
	float	*p_b;
	float	a_real;
	float	a_img;
	float	b_real;
	float	b_img;
	float	sum_real=0;
  101e98:	eeb05a65 	vmov.f32	s10, s11
  101e9c:	eaffffee 	b	101e5c <sp_cmplx_vector_dot_mul+0x15c>
  101ea0:	00000000 	.word	0x00000000

00101ea4 <sp_cmplx_vector_init>:

void  sp_cmplx_vector_init( void )
{
	int		i;

	print_var_location( gf_array_src_a );
  101ea4:	e30f0e78 	movw	r0, #65144	; 0xfe78
  101ea8:	e30f1e9c 	movw	r1, #65180	; 0xfe9c
  101eac:	e3012000 	movw	r2, #4096	; 0x1000
/************************** Function Implementation ******************************/



void  sp_cmplx_vector_init( void )
{
  101eb0:	e92d4ff8 	push	{r3, r4, r5, r6, r7, r8, r9, sl, fp, lr}
	int		i;

	print_var_location( gf_array_src_a );
  101eb4:	e3400010 	movt	r0, #16
  101eb8:	e3401010 	movt	r1, #16
  101ebc:	e3402000 	movt	r2, #0
	print_var_location( gf_sum_dsp_concept2 );
	xil_printf( "\r\n" );

	for( i=0; i<(VECTOR_MAX_LENGTH*2); i++ )
	{
		gf_array_src_a[i] =  rand()/100;
  101ec0:	e308851f 	movw	r8, #34079	; 0x851f

void  sp_cmplx_vector_init( void )
{
	int		i;

	print_var_location( gf_array_src_a );
  101ec4:	eb000dfd 	bl	1056c0 <xil_printf>
	//print_var_location( gf_array_src_a[0] );
	print_var_location( gf_array_src_b );
  101ec8:	e30f0e78 	movw	r0, #65144	; 0xfe78
  101ecc:	e30f1eac 	movw	r1, #65196	; 0xfeac
  101ed0:	e3400010 	movt	r0, #16
  101ed4:	e3401010 	movt	r1, #16
  101ed8:	e59f22b0 	ldr	r2, [pc, #688]	; 102190 <sp_cmplx_vector_init+0x2ec>
	xil_printf( "\r\n" );

	for( i=0; i<(VECTOR_MAX_LENGTH*2); i++ )
	{
		gf_array_src_a[i] =  rand()/100;
		gf_array_src_b[i] =  rand()/10;
  101edc:	e3067667 	movw	r7, #26215	; 0x6667
{
	int		i;

	print_var_location( gf_array_src_a );
	//print_var_location( gf_array_src_a[0] );
	print_var_location( gf_array_src_b );
  101ee0:	eb000df6 	bl	1056c0 <xil_printf>
	//print_var_location( gf_array_src_b[0] );
	print_var_location( gf_sum_dsp_concept );
  101ee4:	e30f0e78 	movw	r0, #65144	; 0xfe78
  101ee8:	e30f1ebc 	movw	r1, #65212	; 0xfebc
  101eec:	e3400010 	movt	r0, #16
  101ef0:	e3401010 	movt	r1, #16
  101ef4:	e59f2298 	ldr	r2, [pc, #664]	; 102194 <sp_cmplx_vector_init+0x2f0>
	print_var_location( gf_sum_dsp_concept2 );
	xil_printf( "\r\n" );

	for( i=0; i<(VECTOR_MAX_LENGTH*2); i++ )
  101ef8:	e3a0a000 	mov	sl, #0

	print_var_location( gf_array_src_a );
	//print_var_location( gf_array_src_a[0] );
	print_var_location( gf_array_src_b );
	//print_var_location( gf_array_src_b[0] );
	print_var_location( gf_sum_dsp_concept );
  101efc:	eb000def 	bl	1056c0 <xil_printf>
	print_var_location( gf_sum_dsp_concept2 );
  101f00:	e30f0e78 	movw	r0, #65144	; 0xfe78
  101f04:	e30f1ed0 	movw	r1, #65232	; 0xfed0
  101f08:	e3400010 	movt	r0, #16
  101f0c:	e59f6284 	ldr	r6, [pc, #644]	; 102198 <sp_cmplx_vector_init+0x2f4>
  101f10:	e3401010 	movt	r1, #16
  101f14:	e59f2280 	ldr	r2, [pc, #640]	; 10219c <sp_cmplx_vector_init+0x2f8>
  101f18:	eb000de8 	bl	1056c0 <xil_printf>
	xil_printf( "\r\n" );
  101f1c:	e30f0e98 	movw	r0, #65176	; 0xfe98
  101f20:	e59f5278 	ldr	r5, [pc, #632]	; 1021a0 <sp_cmplx_vector_init+0x2fc>
  101f24:	e3400010 	movt	r0, #16

	for( i=0; i<(VECTOR_MAX_LENGTH*2); i++ )
	{
		gf_array_src_a[i] =  rand()/100;
  101f28:	e34581eb 	movt	r8, #20971	; 0x51eb
  101f2c:	e246b01c 	sub	fp, r6, #28
		gf_array_src_b[i] =  rand()/10;
  101f30:	e3467666 	movt	r7, #26214	; 0x6666
	//print_var_location( gf_array_src_a[0] );
	print_var_location( gf_array_src_b );
	//print_var_location( gf_array_src_b[0] );
	print_var_location( gf_sum_dsp_concept );
	print_var_location( gf_sum_dsp_concept2 );
	xil_printf( "\r\n" );
  101f34:	eb000de1 	bl	1056c0 <xil_printf>

	for( i=0; i<(VECTOR_MAX_LENGTH*2); i++ )
	{
		gf_array_src_a[i] =  rand()/100;
  101f38:	eb001295 	bl	106994 <rand>
  101f3c:	e0c12098 	smull	r2, r1, r8, r0
  101f40:	e1a00fc0 	asr	r0, r0, #31

/************************** Function Implementation ******************************/



void  sp_cmplx_vector_init( void )
  101f44:	e1a0910a 	lsl	r9, sl, #2
	//print_var_location( gf_array_src_b[0] );
	print_var_location( gf_sum_dsp_concept );
	print_var_location( gf_sum_dsp_concept2 );
	xil_printf( "\r\n" );

	for( i=0; i<(VECTOR_MAX_LENGTH*2); i++ )
  101f48:	e28aa008 	add	sl, sl, #8

/************************** Function Implementation ******************************/



void  sp_cmplx_vector_init( void )
  101f4c:	e26a4a01 	rsb	r4, sl, #4096	; 0x1000
  101f50:	e08bc009 	add	ip, fp, r9
  101f54:	f5dcf01c 	pld	[ip, #28]
	print_var_location( gf_sum_dsp_concept2 );
	xil_printf( "\r\n" );

	for( i=0; i<(VECTOR_MAX_LENGTH*2); i++ )
	{
		gf_array_src_a[i] =  rand()/100;
  101f58:	e06002c1 	rsb	r0, r0, r1, asr #5
  101f5c:	ee070a90 	vmov	s15, r0
  101f60:	eef87ae7 	vcvt.f32.s32	s15, s15
  101f64:	ed467a07 	vstr	s15, [r6, #-28]	; 0xffffffe4
		gf_array_src_b[i] =  rand()/10;
  101f68:	eb001289 	bl	106994 <rand>
  101f6c:	e0c13097 	smull	r3, r1, r7, r0
  101f70:	e1a00fc0 	asr	r0, r0, #31

/************************** Function Implementation ******************************/



void  sp_cmplx_vector_init( void )
  101f74:	e59f3214 	ldr	r3, [pc, #532]	; 102190 <sp_cmplx_vector_init+0x2ec>
  101f78:	e0832009 	add	r2, r3, r9
	xil_printf( "\r\n" );

	for( i=0; i<(VECTOR_MAX_LENGTH*2); i++ )
	{
		gf_array_src_a[i] =  rand()/100;
		gf_array_src_b[i] =  rand()/10;
  101f7c:	e0600141 	rsb	r0, r0, r1, asr #2
  101f80:	f5d2f01c 	pld	[r2, #28]
  101f84:	ee070a90 	vmov	s15, r0
  101f88:	eef87ae7 	vcvt.f32.s32	s15, s15
  101f8c:	ed457a07 	vstr	s15, [r5, #-28]	; 0xffffffe4
	print_var_location( gf_sum_dsp_concept2 );
	xil_printf( "\r\n" );

	for( i=0; i<(VECTOR_MAX_LENGTH*2); i++ )
	{
		gf_array_src_a[i] =  rand()/100;
  101f90:	eb00127f 	bl	106994 <rand>
  101f94:	e0c23098 	smull	r3, r2, r8, r0
  101f98:	e1a00fc0 	asr	r0, r0, #31
  101f9c:	e06002c2 	rsb	r0, r0, r2, asr #5
  101fa0:	ee070a90 	vmov	s15, r0
  101fa4:	eef87ae7 	vcvt.f32.s32	s15, s15
  101fa8:	ed467a06 	vstr	s15, [r6, #-24]	; 0xffffffe8
		gf_array_src_b[i] =  rand()/10;
  101fac:	eb001278 	bl	106994 <rand>
  101fb0:	e0c23097 	smull	r3, r2, r7, r0
  101fb4:	e1a00fc0 	asr	r0, r0, #31
  101fb8:	e0600142 	rsb	r0, r0, r2, asr #2
  101fbc:	ee070a90 	vmov	s15, r0
  101fc0:	eef87ae7 	vcvt.f32.s32	s15, s15
  101fc4:	ed457a06 	vstr	s15, [r5, #-24]	; 0xffffffe8
	print_var_location( gf_sum_dsp_concept2 );
	xil_printf( "\r\n" );

	for( i=0; i<(VECTOR_MAX_LENGTH*2); i++ )
	{
		gf_array_src_a[i] =  rand()/100;
  101fc8:	eb001271 	bl	106994 <rand>
  101fcc:	e0c23098 	smull	r3, r2, r8, r0
  101fd0:	e1a00fc0 	asr	r0, r0, #31
  101fd4:	e06002c2 	rsb	r0, r0, r2, asr #5
  101fd8:	ee070a90 	vmov	s15, r0
  101fdc:	eef87ae7 	vcvt.f32.s32	s15, s15
  101fe0:	ed467a05 	vstr	s15, [r6, #-20]	; 0xffffffec
		gf_array_src_b[i] =  rand()/10;
  101fe4:	eb00126a 	bl	106994 <rand>
  101fe8:	e0c23097 	smull	r3, r2, r7, r0
  101fec:	e1a00fc0 	asr	r0, r0, #31
  101ff0:	e0600142 	rsb	r0, r0, r2, asr #2
  101ff4:	ee070a90 	vmov	s15, r0
  101ff8:	eef87ae7 	vcvt.f32.s32	s15, s15
  101ffc:	ed457a05 	vstr	s15, [r5, #-20]	; 0xffffffec
	print_var_location( gf_sum_dsp_concept2 );
	xil_printf( "\r\n" );

	for( i=0; i<(VECTOR_MAX_LENGTH*2); i++ )
	{
		gf_array_src_a[i] =  rand()/100;
  102000:	eb001263 	bl	106994 <rand>
  102004:	e0c23098 	smull	r3, r2, r8, r0
  102008:	e1a00fc0 	asr	r0, r0, #31
  10200c:	e06002c2 	rsb	r0, r0, r2, asr #5
  102010:	ee070a90 	vmov	s15, r0
  102014:	eef87ae7 	vcvt.f32.s32	s15, s15
  102018:	ed467a04 	vstr	s15, [r6, #-16]
		gf_array_src_b[i] =  rand()/10;
  10201c:	eb00125c 	bl	106994 <rand>
  102020:	e0c23097 	smull	r3, r2, r7, r0
  102024:	e1a00fc0 	asr	r0, r0, #31
  102028:	e0600142 	rsb	r0, r0, r2, asr #2
  10202c:	ee070a90 	vmov	s15, r0
  102030:	eef87ae7 	vcvt.f32.s32	s15, s15
  102034:	ed457a04 	vstr	s15, [r5, #-16]
	print_var_location( gf_sum_dsp_concept2 );
	xil_printf( "\r\n" );

	for( i=0; i<(VECTOR_MAX_LENGTH*2); i++ )
	{
		gf_array_src_a[i] =  rand()/100;
  102038:	eb001255 	bl	106994 <rand>
  10203c:	e0c23098 	smull	r3, r2, r8, r0
  102040:	e1a00fc0 	asr	r0, r0, #31
  102044:	e06002c2 	rsb	r0, r0, r2, asr #5
  102048:	ee070a90 	vmov	s15, r0
  10204c:	eef87ae7 	vcvt.f32.s32	s15, s15
  102050:	ed467a03 	vstr	s15, [r6, #-12]
		gf_array_src_b[i] =  rand()/10;
  102054:	eb00124e 	bl	106994 <rand>
  102058:	e0c23097 	smull	r3, r2, r7, r0
  10205c:	e1a00fc0 	asr	r0, r0, #31
  102060:	e0600142 	rsb	r0, r0, r2, asr #2
  102064:	ee070a90 	vmov	s15, r0
  102068:	eef87ae7 	vcvt.f32.s32	s15, s15
  10206c:	ed457a03 	vstr	s15, [r5, #-12]
	print_var_location( gf_sum_dsp_concept2 );
	xil_printf( "\r\n" );

	for( i=0; i<(VECTOR_MAX_LENGTH*2); i++ )
	{
		gf_array_src_a[i] =  rand()/100;
  102070:	eb001247 	bl	106994 <rand>
  102074:	e0c23098 	smull	r3, r2, r8, r0
  102078:	e1a00fc0 	asr	r0, r0, #31
  10207c:	e06002c2 	rsb	r0, r0, r2, asr #5
  102080:	ee070a90 	vmov	s15, r0
  102084:	eef87ae7 	vcvt.f32.s32	s15, s15
  102088:	ed467a02 	vstr	s15, [r6, #-8]
		gf_array_src_b[i] =  rand()/10;
  10208c:	eb001240 	bl	106994 <rand>
  102090:	e0c23097 	smull	r3, r2, r7, r0
  102094:	e1a00fc0 	asr	r0, r0, #31
  102098:	e0600142 	rsb	r0, r0, r2, asr #2
